(dp1
S'output'
p2
S'<class \'gluon.contrib.pg8000.errors.ProgrammingError\'> (\'ERROR\', \'22008\', \'date/time field value out of range: "15/11/1971"\')'
p3
sS'layer'
p4
S'D:\\Desenvolvimento\\web2py\\applications\\anestesia\\controllers/pagina_incluir.py'
p5
sS'code'
p6
S'__author__ = \'Mohamed\'\n\n\ndef gerar_form():\n    campos = FORM(\n        DIV(_id=\'div_geral\',\n            *DIV(\n                DIV(\n                    FIELDSET(\n                        LEGEND(_id=\'lgd_dados_gerais\',\n                               *\'DADOS GERAIS\'\n                        ),\n                        \'Nr Registro:\',\n                        INPUT(_id=\'nr_registro\', _name=\'nr_registro\'),\n                        \'Matricula HUGG:\',\n                        INPUT(_id=\'matricula_hugg\', requires=IS_NOT_EMPTY()),\n                        BR(),\n                        \'Nome: \',\n                        INPUT(_id=\'nome\', _name=\'nome\', requires=IS_NOT_EMPTY(\'Entre com o nome.\')),\n                        \'Data: \',\n                        INPUT(_id=\'data\', _name=\'data\'),\n                        \'Ficha Nr: \',\n                        INPUT(_id=\'ficha_nr\', _name=\'ficha_nr\'),\n                        BR(),\n                        \'Enf:\',\n                        INPUT(_id=\'enfermaria\', _name=\'enfermaria\'),\n                        \'Leito:\',\n                        INPUT(_id=\'leito\', _name=\'leito\'),\n                        BR(),\n                        \'Idade:\',\n                        INPUT(_id=\'idade\', _name=\'idade\'),\n                        \'ASA:\',\n                        INPUT(_id=\'asa\', _name=\'asa\'),\n                        \'Clinica:\',\n                        INPUT(_id=\'clinica\', _name=\'clinica\'),\n                        \'SO:\',\n                        INPUT(_id=\'so\', _name=\'so\'),\n                        DIV(_id=\'div_e\',\n                            *FIELDSET(\n                                \'E:\',\n                                INPUT(_id=\'radio_dados_cadastrais_e_sim\',\n                                      _type=\'radio\',\n                                      _name=\'dados_cadastrais_e\',\n                                      _value=\'sim\'),\n                                \'sim\',\n                                INPUT(_id=\'radio_dados_cadastrais_e_nao\',\n                                      _type=\'radio\',\n                                      _name=\'dados_cadastrais_e\',\n                                      _value=\'nao\'),\n                                \'n\xc3\xa3o\',\n                            )\n                        ),\n                        \'Sexo:\',\n\n                        INPUT(_id=\'radio_sexo_f\',\n                              _type=\'radio\',\n                              _name=\'dados_cadastrais_sexo\',\n                              _value=\'F\'),\n                        \'F\',\n\n                        INPUT(_id=\'radio_sexo_m\',\n                              _type=\'radio\',\n                              _name=\'dados_cadastrais_sexo\',\n                              _value=\'M\'),\n                        \'M\',\n\n                        BR(),\n                        \'Altura:\',\n                        INPUT(_id=\'altura\', _name=\'altura\'),\n                        \'Peso:\',\n                        INPUT(_id=\'peso\', _name=\'peso\'),\n                        \'Temp:\',\n                        INPUT(_id=\'temperatura\', _name=\'temperatura\'),\n                        \'Pulso:\',\n                        INPUT(_id=\'pulso\', _name=\'pulso\'),\n                        \'Resp.:\',\n                        INPUT(_id=\'respiracao\', _name=\'respiracao\'),\n                        \'PA:\',\n                        INPUT(_id=\'pa\', _name=\'pa\'),\n                        HR(),\n                        \'Diagn\xc3\xb3stico\',\n                        INPUT(_type=\'text\', _id=\'diagnostico\', _name=\'diagnostico\'),\n                        \'Cirurgia\',\n                        INPUT(_type=\'text\', _id=\'cirurgia\', _name=\'cirurgia\'),\n                        HR(),\n                        DIV(_id=\'div_respiratorio\',\n                            *FIELDSET(\n                                LEGEND(\'RESPIRAT\xc3\x93RIO\',\n                                       _id=\'lgd_respiratorio\'),\n                                TABLE(\n                                    TR(\n                                        TD(\n                                            \'Tabagismo\',\n                                            INPUT(_id=\'radio_tabag_sim\',\n                                                  _type=\'radio\',\n                                                  _name=\'tabagismo\',\n                                                  _value=\'sim\'),\n                                            \'sim\',\n                                            INPUT(_id=\'radio_tabag_nao\',\n                                                  _type=\'radio\',\n                                                  _name=\'tabagismo\',\n                                                  _value=\'nao\'),\n                                            \'n\xc3\xa3o\',\n                                            BR(),\n                                            \'Asma\',\n                                            INPUT(_id=\'radio_asma_sim\',\n                                                  _type=\'radio\',\n                                                  _name=\'asma\',\n                                                  _value=\'sim\'),\n                                            \'sim\',\n                                            INPUT(_id=\'radio_asma_nao\',\n                                                  _type=\'radio\',\n                                                  _name=\'asma\',\n                                                  _value=\'nao\'),\n                                            \'n\xc3\xa3o\',\n                                            BR(),\n                                            \'Tosse / Expectora\xc3\xa7\xc3\xa3o\',\n                                            INPUT(_id=\'radio_tosse_sim\',\n                                                  _type=\'radio\',\n                                                  _name=\'tosse\',\n                                                  _value=\'sim\'),\n                                            \'sim\',\n                                            INPUT(_id=\'radio_tosse_nao\',\n                                                  _type=\'radio\',\n                                                  _name=\'tosse\',\n                                                  _value=\'nao\'),\n                                            \'n\xc3\xa3o\',\n                                            BR(),\n                                            \'DPOC / Bronquiectasia\',\n                                            INPUT(_id=\'radio_dpoc_sim\',\n                                                  _type=\'radio\',\n                                                  _name=\'dpoc\',\n                                                  _value=\'sim\'),\n                                            \'sim\',\n                                            INPUT(_id=\'radio_dpoc_nao\',\n                                                  _type=\'radio\',\n                                                  _name=\'dpoc\',\n                                                  _value=\'nao\'),\n                                            \'n\xc3\xa3o\',\n                                            BR(),\n                                            \'BK/Insuf. Respirat\xc3\xb3ria\',\n                                            INPUT(_id=\'radio_bk_sim\',\n                                                  _type=\'radio\',\n                                                  _name=\'bk_insuficiencia\',\n                                                  _value=\'sim\'),\n                                            \'sim\',\n                                            INPUT(_id=\'radio_bk_nao\',\n                                                  _type=\'radio\',\n                                                  _name=\'bk_insuficiencia\',\n                                                  _value=\'nao\'),\n                                            \'n\xc3\xa3o\',\n                                            BR(),\n                                            \'Derrame pleural / Emplema\',\n                                            INPUT(_id=\'radio_der_pleural_sim\',\n                                                  _type=\'radio\',\n                                                  _name=\'derrame_pleural\',\n                                                  _value=\'sim\'),\n                                            \'sim\',\n                                            INPUT(_id=\'radio_der_pleural_nao\',\n                                                  _type=\'radio\',\n                                                  _name=\'derrame_pleural\',\n                                                  _value=\'nao\'),\n                                            \'n\xc3\xa3o\',\n                                            BR(),\n                                            \'Cir. Tor\xc3\xa1cica\',\n                                            INPUT(_id=\'radio_circ_tor_sim\',\n                                                  _type=\'radio\',\n                                                  _name=\'circunferencia_toraxica\',\n                                                  _value=\'sim\'),\n                                            \'sim\',\n                                            INPUT(_id=\'radio_circ_tor_nao\',\n                                                  _type=\'radio\',\n                                                  _name=\'circunferencia_toraxica\',\n                                                  _value=\'nao\'),\n                                            \'n\xc3\xa3o\',\n                                        )\n                                    )\n                                )\n                            )\n                        ),\n                        DIV(_id=\'div_cardiovascular\',\n                            *FIELDSET(\n                                LEGEND(_id=\'lgd_cardiovascular\',\n                                       *\'CARDIOVASCULAR\'),\n                                TABLE(\n                                    TR(\n                                        TD(\n                                            \'HAS\',\n                                            INPUT(_id=\'radio_has_sim\',\n                                                  _type=\'radio\',\n                                                  _name=\'has\',\n                                                  _value=\'sim\'),\n                                            \'sim\',\n                                            INPUT(_id=\'radio_has_nao\',\n                                                  _type=\'radio\',\n                                                  _name=\'has\',\n                                                  _value=\'nao\'),\n                                            \'n\xc3\xa3o\',\n                                            BR(),\n                                            \'ICC\',\n                                            INPUT(_id=\'radio_icc_sim\',\n                                                  _type=\'radio\',\n                                                  _name=\'icc\',\n                                                  _value=\'sim\'),\n                                            \'sim\',\n                                            INPUT(_id=\'radio_icc_nao\',\n                                                  _type=\'radio\',\n                                                  _name=\'icc\',\n                                                  _value=\'nao\'),\n                                            \'n\xc3\xa3o\',\n                                            BR(),\n                                            \'Anglina\',\n                                            INPUT(_id=\'radio_anglina_sim\',\n                                                  _type=\'radio\',\n                                                  _name=\'anglina\',\n                                                  _value=\'sim\'),\n                                            \'sim\',\n                                            INPUT(_id=\'radio_anglina_nao\',\n                                                  _type=\'radio\',\n                                                  _name=\'anglina\',\n                                                  _value=\'nao\'),\n                                            \'n\xc3\xa3o\',\n                                            BR(),\n                                            \'IAM\',\n                                            INPUT(_id=\'radio_iam_sim\',\n                                                  _type=\'radio\',\n                                                  _name=\'iam\',\n                                                  _value=\'sim\'),\n                                            \'sim\',\n                                            INPUT(_id=\'radio_iam_nao\',\n                                                  _type=\'radio\',\n                                                  _name=\'iam\',\n                                                  _value=\'nao\'),\n                                            \'n\xc3\xa3o\',\n                                            BR(),\n                                            \'Valvulopalla\',\n                                            INPUT(_id=\'radio_valvulopalla_sim\',\n                                                  _type=\'radio\',\n                                                  _name=\'valvulopalla\',\n                                                  _value=\'sim\'),\n                                            \'sim\',\n                                            INPUT(_id=\'radio_valvulopalla_nao\',\n                                                  _type=\'radio\',\n                                                  _name=\'valvulopalla\',\n                                                  _value=\'nao\'),\n                                            \'n\xc3\xa3o\',\n                                            BR(),\n                                            \'Marcapasso\',\n                                            INPUT(_id=\'radio_marcapasso_sim\',\n                                                  _type=\'radio\',\n                                                  _name=\'marcapasso\',\n                                                  _value=\'sim\'),\n                                            \'sim\',\n                                            INPUT(_id=\'radio_marcapasso_nao\',\n                                                  _type=\'radio\',\n                                                  _name=\'marcapasso\',\n                                                  _value=\'nao\'),\n                                            \'n\xc3\xa3o\',\n                                            BR(),\n                                            \'Arritmias\',\n                                            INPUT(_id=\'radio_arritmias_sim\',\n                                                  _type=\'radio\',\n                                                  _name=\'arritmias\',\n                                                  _value=\'sim\'),\n                                            \'sim\',\n                                            INPUT(_id=\'radio_arritmias_nao\',\n                                                  _type=\'radio\',\n                                                  _name=\'arritmias\',\n                                                  _value=\'nao\'),\n                                            \'n\xc3\xa3o\',\n                                            BR(),\n                                            \'Insuf. Venosa\',\n                                            INPUT(_id=\'radio_insuf_venosa_sim\',\n                                                  _type=\'radio\',\n                                                  _name=\'insuf_venosa\',\n                                                  _value=\'sim\'),\n                                            \'sim\',\n                                            INPUT(_id=\'radio_insuf_venosa_nao\',\n                                                  _type=\'radio\',\n                                                  _name=\'insuf_venosa\',\n                                                  _value=\'nao\'),\n                                            \'n\xc3\xa3o\',\n                                        )\n                                    )\n                                )\n                            )\n                        ),\n                        BR(),\n                        FIELDSET(\n                            LEGEND(_id=\'lgd_outros\',\n                                   *\'Outros\'),\n                            DIV(_id=\'div_outros_esq\',\n                                *TABLE(\n                                    TR(\n                                        TD(\n                                            \'Diabetes: \',\n                                            INPUT(_id=\'radio_diabetes_sim\',\n                                                  _type=\'radio\',\n                                                  _name=\'diabetes\',\n                                                  _value=\'sim\'),\n                                            \'sim\',\n                                            INPUT(_id=\'radio_diabetes_nao\',\n                                                  _type=\'radio\',\n                                                  _name=\'diabetes\',\n                                                  _value=\'nao\'),\n                                            \'n\xc3\xa3o\',\n                                            BR(),\n                                            \'Hipertireoidismo: \',\n                                            INPUT(_id=\'radio_hipertireoidismo_sim\',\n                                                  _type=\'radio\',\n                                                  _name=\'hipertireoidismo\',\n                                                  _value=\'sim\'),\n                                            \'sim\',\n                                            INPUT(_id=\'radio_hipertireoidismo_nao\',\n                                                  _type=\'radio\',\n                                                  _name=\'hipertireoidismo\',\n                                                  _value=\'nao\'),\n                                            \'n\xc3\xa3o\',\n                                            BR(),\n                                            \'Endocrinopalias: \',\n                                            INPUT(_id=\'radio_endocrinopalias_sim\',\n                                                  _type=\'radio\',\n                                                  _name=\'endocrinopalias\',\n                                                  _value=\'sim\'),\n                                            \'sim\',\n                                            INPUT(_id=\'radio_endocrinopalias_nao\',\n                                                  _type=\'radio\',\n                                                  _name=\'endocrinopalias\',\n                                                  _value=\'nao\'),\n                                            \'n\xc3\xa3o\',\n                                            BR(),\n                                            \'Cirrose: \',\n                                            INPUT(_id=\'radio_cirrose_sim\',\n                                                  _type=\'radio\',\n                                                  _name=\'cirrose\',\n                                                  _value=\'sim\'),\n                                            \'sim\',\n                                            INPUT(_id=\'radio_cirrose_nao\',\n                                                  _type=\'radio\',\n                                                  _name=\'cirrose\',\n                                                  _value=\'nao\'),\n                                            \'n\xc3\xa3o\',\n                                            BR(),\n                                            \'Hepatite A: \',\n                                            INPUT(_id=\'radio_hepa_sim\',\n                                                  _type=\'radio\',\n                                                  _name=\'hepatite_a\',\n                                                  _value=\'sim\'),\n                                            \'sim\',\n                                            INPUT(_id=\'radio_hepa_nao\',\n                                                  _type=\'radio\',\n                                                  _name=\'hepatite_a\',\n                                                  _value=\'nao\'),\n                                            \'n\xc3\xa3o\',\n                                            BR(),\n                                            \'Hepatite B: \',\n                                            INPUT(_id=\'radio_hepb_sim\',\n                                                  _type=\'radio\',\n                                                  _name=\'hepatite_b\',\n                                                  _value=\'sim\'),\n                                            \'sim\',\n                                            INPUT(_id=\'radio_hepb_nao\',\n                                                  _type=\'radio\',\n                                                  _name=\'hepatite_b\',\n                                                  _value=\'nao\'),\n                                            \'n\xc3\xa3o\',\n                                            BR(),\n                                            \'Hepatite C: \',\n                                            INPUT(_id=\'radio_hepc_sim\',\n                                                  _type=\'radio\',\n                                                  _name=\'hepatite_c\',\n                                                  _value=\'sim\'),\n                                            \'sim\',\n                                            INPUT(_id=\'radio_hepc_nao\',\n                                                  _type=\'radio\',\n                                                  _name=\'hepatite_c\',\n                                                  _value=\'nao\'),\n                                            \'n\xc3\xa3o\',\n                                            BR(),\n                                            \'Elilismo: \',\n                                            INPUT(_id=\'radio_elilismo_sim\',\n                                                  _type=\'radio\',\n                                                  _name=\'elilismo\',\n                                                  _value=\'sim\'),\n                                            \'sim\',\n                                            INPUT(_id=\'radio_elilismo_nao\',\n                                                  _type=\'radio\',\n                                                  _name=\'elilismo\',\n                                                  _value=\'nao\'),\n                                            \'n\xc3\xa3o\',\n                                            BR(),\n                                            \'HIV / SIDA: \',\n                                            INPUT(_id=\'radio_hiv_sim\',\n                                                  _type=\'radio\',\n                                                  _name=\'hiv\',\n                                                  _value=\'sim\'),\n                                            \'sim\',\n                                            INPUT(_id=\'radio_hiv_nao\',\n                                                  _type=\'radio\',\n                                                  _name=\'hiv\',\n                                                  _value=\'nao\'),\n                                            \'n\xc3\xa3o\',\n                                            BR(),\n                                            \'Infec\xc3\xa7\xc3\xb5es Oportunistas: \',\n                                            INPUT(_id=\'radio_inf_opor_sim\',\n                                                  _type=\'radio\',\n                                                  _name=\'infeccoes_oportunistas\',\n                                                  _value=\'sim\'),\n                                            \'sim\',\n                                            INPUT(_id=\'radio_inf_opor_nao\',\n                                                  _type=\'radio\',\n                                                  _name=\'infeccoes_oportunistas\',\n                                                  _value=\'nao\'),\n                                            \'n\xc3\xa3o\',\n                                        )\n                                    ),\n                                )\n                            ),\n                            DIV(_id=\'div_outros_centro\',\n                                *TABLE(\n                                    *TR(\n                                        TD(\n                                            TD(\n                                                \'Insuf. Renal: \',\n                                                INPUT(_id=\'radio_insuf_renal_sim\',\n                                                      _type=\'radio\',\n                                                      _name=\'insuf_renal\',\n                                                      _value=\'sim\'),\n                                                \'sim\',\n                                                INPUT(_id=\'radio_insuf_renal_nao\',\n                                                      _type=\'radio\',\n                                                      _name=\'insuf_renal\',\n                                                      _value=\'nao\'),\n                                                \'n\xc3\xa3o\',\n                                                BR(),\n                                                \'Hemod. Di\xc3\xa1lise Peritoneal: \',\n                                                INPUT(_id=\'radio_hemod_sim\',\n                                                      _type=\'radio\',\n                                                      _name=\'hemodialise_peritoneal\',\n                                                      _value=\'sim\'),\n                                                \'sim\',\n                                                INPUT(_id=\'radio_hemod_nao\',\n                                                      _type=\'radio\',\n                                                      _name=\'hemodialise_peritoneal\',\n                                                      _value=\'nao\'),\n                                                \'n\xc3\xa3o\',\n                                                BR(),\n                                                \'Dist\xc3\xbarbios Hemorr\xc3\xa1gicos: \',\n                                                INPUT(_id=\'radio_dist_hemo_sim\',\n                                                      _type=\'radio\',\n                                                      _name=\'disturbios_hemorragicos\',\n                                                      _value=\'sim\'),\n                                                \'sim\',\n                                                INPUT(_id=\'radio_dist_hemo_nao\',\n                                                      _type=\'radio\',\n                                                      _name=\'disturbios_hemorragicos\',\n                                                      _value=\'nao\'),\n                                                \'n\xc3\xa3o\',\n                                                BR(),\n                                                \'AVC Pr\xc3\xa9vio: \',\n                                                INPUT(_id=\'radio_avc_previo_sim\',\n                                                      _type=\'radio\',\n                                                      _name=\'avc_previo\',\n                                                      _value=\'sim\'),\n                                                \'sim\',\n                                                INPUT(_id=\'radio_avc_previo_nao\',\n                                                      _type=\'radio\',\n                                                      _name=\'avc_previo\',\n                                                      _value=\'nao\'),\n                                                \'n\xc3\xa3o\',\n                                                BR(),\n                                                \'D. Psiqui\xc3\xa1trica: \',\n                                                INPUT(_id=\'radio_d_psi_sim\',\n                                                      _type=\'radio\',\n                                                      _name=\'doencas_psiquiatrica\',\n                                                      _value=\'sim\'),\n                                                \'sim\',\n                                                INPUT(_id=\'radio_d_psi_nao\',\n                                                      _type=\'radio\',\n                                                      _name=\'doencas_psiquiatrica\',\n                                                      _value=\'nao\'),\n                                                \'n\xc3\xa3o\',\n                                                BR(),\n                                                \'D. Neuromuscular: \',\n                                                INPUT(_id=\'radio_d_neuro_musc_sim\',\n                                                      _type=\'radio\',\n                                                      _name=\'doencas_neuromuscular\',\n                                                      _value=\'sim\'),\n                                                \'sim\',\n                                                INPUT(_id=\'radio_d_neuro_musc_nao\',\n                                                      _type=\'radio\',\n                                                      _name=\'doencas_neuromuscular\',\n                                                      _value=\'nao\'),\n                                                \'n\xc3\xa3o\',\n                                                BR(),\n                                                \'D. Reum\xc3\xa1tica: \',\n                                                INPUT(_id=\'radio_d_reuma_sim\',\n                                                      _type=\'radio\',\n                                                      _name=\'doencas_reumatica\',\n                                                      _value=\'sim\'),\n                                                \'sim\',\n                                                INPUT(_id=\'radio_d_reuma_nao\',\n                                                      _type=\'radio\',\n                                                      _name=\'doencas_reumatica\',\n                                                      _value=\'nao\'),\n                                                \'n\xc3\xa3o\',\n                                                BR(),\n                                                \'Alt. Neurol\xc3\xb3gica: \',\n                                                INPUT(_id=\'radio_alt_neuro_sim\',\n                                                      _type=\'radio\',\n                                                      _name=\'alteracao_neurologica\',\n                                                      _value=\'sim\'),\n                                                \'sim\',\n                                                INPUT(_id=\'radio_alt_neuro_nao\',\n                                                      _type=\'radio\',\n                                                      _name=\'alteracao_neurologica\',\n                                                      _value=\'nao\'),\n                                                \'n\xc3\xa3o\',\n                                                BR(),\n                                                \'Hemotransfus\xc3\xa3o pr\xc3\xa9via: \',\n                                                INPUT(_id=\'radio_hemo_prev_sim\',\n                                                      _type=\'radio\',\n                                                      _name=\'hemotransfusao_previa\',\n                                                      _value=\'sim\'),\n                                                \'sim\',\n                                                INPUT(_id=\'radio_hemo_prev_nao\',\n                                                      _type=\'radio\',\n                                                      _name=\'hemotransfusao_previa\',\n                                                      _value=\'nao\'),\n                                                \'n\xc3\xa3o\',\n                                            ),\n                                        )\n                                    )\n                                )\n                            ),\n                            DIV(_id=\'div_outros_dir\',\n                                *TABLE(\n                                    TR(\n                                        TD(\n                                            \'Observa\xc3\xa7\xc3\xb5es Gerais\'\n                                        )\n                                    ),\n                                    BR(),\n                                    TR(\n                                        TD(\n                                            TEXTAREA(_id=\'txtarea_obs_gerais\', _name=\'txtarea_obs_gerais\')\n                                        )\n                                    )\n                                )\n                            ),\n                            HR(),\n                            \'Medicamentos em uso:\',\n                            INPUT(_type=\'text\', _id=\'txt_med_em_uso\', _name=\'txt_med_em_uso\'),\n                            \'Alergias:\',\n                            INPUT(_type=\'text\', _id=\'txt_alergias\', _name=\'txt_alergias\'),\n                            \'Cirurgias Pr\xc3\xa9vias / Antecedentes Anest\xc3\xa9sicos Pessoais e Familiares:\',\n                            INPUT(_type=\'text\', _id=\'txt_cir_previas\', _name=\'txt_cir_previas\'),\n                            HR(),\n                            FIELDSET(\n                                LEGEND(_id=\'lgd_vias_aereas\',\n                                       *\'VIAS A\xc3\x89REAS\')\n                            ),\n                            BR(),\n                            DIV(_id=\'div_cavidade_oral\',\n                                *FIELDSET(\n                                    LEGEND(_id=\'lgd_cavidade_oral\',\n                                           *\'CAVIDADE ORAL\'),\n                                    \'Mallampati: \',\n                                    SELECT(\n                                        OPTION(\'1\', _value=\'MALLAPATI 1\', _name=\'mallampati\'),\n                                        OPTION(\'2\', _value=\'MALLAPATI 2\', _name=\'mallampati\'),\n                                        OPTION(\'3\', _value=\'MALLAPATI 3\', _name=\'mallampati\'),\n                                        OPTION(\'4\', _value=\'MALLAPATI 4\', _name=\'mallampati\')\n                                    ),\n\n                                    BR(),\n                                    \'Abertura de boca limitada: \',\n                                    INPUT(_id=\'radio_aber_boca_sim\',\n                                          _type=\'radio\',\n                                          _name=\'abertura_boca\',\n                                          _value=\'sim\'),\n                                    \'sim\',\n                                    INPUT(_id=\'radio_aber_boca_nao\',\n                                          _type=\'radio\',\n                                          _name=\'abertura_boca\',\n                                          _value=\'nao\'),\n                                    \'n\xc3\xa3o\',\n                                    BR(),\n                                    \'Dentes Falhos: \',\n                                    INPUT(_id=\'radio_dentes_falhos_sim\',\n                                          _type=\'radio\',\n                                          _name=\'dentes_falhos\',\n                                          _value=\'sim\'),\n                                    \'sim\',\n                                    INPUT(_id=\'radio_dentes_falhos_nao\',\n                                          _type=\'radio\',\n                                          _name=\'dentes_falhos\',\n                                          _value=\'nao\'),\n                                    \'n\xc3\xa3o\',\n                                    BR(),\n                                    \'Pr\xc3\xb3tese Sup. - Inf.: \',\n                                    INPUT(_id=\'radio_protese_sim\',\n                                          _type=\'radio\',\n                                          _name=\'protese\',\n                                          _value=\'sim\'),\n                                    \'sim\',\n                                    INPUT(_id=\'radio_protese_nao\',\n                                          _type=\'radio\',\n                                          _name=\'protese\',\n                                          _value=\'nao\'),\n                                    \'n\xc3\xa3o\',\n                                    BR(),\n                                    \'Macroglossia: \',\n                                    INPUT(_id=\'radio_macroglossia_sim\',\n                                          _type=\'radio\',\n                                          _name=\'macroglossia\',\n                                          _value=\'sim\'),\n                                    \'sim\',\n                                    INPUT(_id=\'radio_macroglossia_nao\',\n                                          _type=\'radio\',\n                                          _name=\'macroglossia\',\n                                          _value=\'nao\'),\n                                    \'n\xc3\xa3o\',\n                                )\n                            ),\n                            DIV(_id=\'div_pescoco\',\n                                *FIELDSET(\n                                    LEGEND(_id=\'lgd_pescoco\',\n                                           *\'PESCO\xc3\x87O\'),\n                                    \'Dist\xc3\xa2ncia Esterno-Mento: \',\n                                    INPUT(_type=\'text\', _id=\'dist_est_mento\', _name=\'distancia_esterno_mento\'),\n                                    BR(),\n                                    \'Curto / Longo: \',\n                                    INPUT(_type=\'text\', _id=\'curto_longo\', _name=\'pescoco_curto_longo\'),\n                                    BR(),\n                                    \'Mobilidade cervical diminuida: \',\n                                    INPUT(_type=\'text\', _id=\'mob_cervical\', _name=\'pescoco_mobilidade_cervical\'),\n                                    BR(),\n                                    DIV(\n                                        FIELDSET(\n                                            \'Massa cervical: \',\n                                            INPUT(_id=\'radio_massa_cervical_sim\',\n                                                  _type=\'radio\',\n                                                  _name=\'massa_cervical\',\n                                                  _value=\'sim\'),\n                                            \'sim\',\n                                            INPUT(_id=\'radio_massa_cervical_nao\',\n                                                  _type=\'radio\',\n                                                  _name=\'massa_cervical\',\n                                                  _value=\'nao\'),\n                                            \'n\xc3\xa3o\',\n                                        )\n                                    ),\n                                    BR(),\n                                    DIV(\n                                        FIELDSET(\n                                            \'Desvio de traqu\xc3\xa9ia: \',\n                                            INPUT(_id=\'radio_desvio_traqueia_sim\',\n                                                  _type=\'radio\',\n                                                  _name=\'desvio_traqueia\',\n                                                  _value=\'sim\'),\n                                            \'sim\',\n                                            INPUT(_id=\'radio_desvio_traqueia_nao\',\n                                                  _type=\'radio\',\n                                                  _name=\'desvio_traqueia\',\n                                                  _value=\'nao\'),\n                                            \'n\xc3\xa3o\',\n                                        )\n                                    ),\n                                    BR(),\n                                    \'Dist\xc3\xa2ncia Mento-Hi\xc3\xb3ide: \',\n                                    INPUT(_type=\'text\', _id=\'dist_mento_hioide\', _name=\'distancia_mento_hiloide\'),\n                                    BR(),\n                                    \'Circunfer\xc3\xaancia cervical: \',\n                                    INPUT(_type=\'text\', _id=\'circunferencia_cervical\', _name=\'circunferencia_cervical\'),\n                                )\n                            ),\n                            DIV(_id=\'div_atencao\',\n                                *FIELDSET(\n                                    LEGEND(_id=\'lgd_atencao\',\n                                           *\'ATEN\xc3\x87\xc3\x83O\'),\n                                    \'Hist\xc3\xb3ria Pr\xc3\xa9via Dificuldade de intuba\xc3\xa7\xc3\xa3o: \',\n                                    INPUT(_type=\'checkbox\', _id=\'chk_hist\', _name=\'chk_atencao_dificuldade_intubacao\', _value=\'sim\'),\n                                    BR(),\n                                    \'Via a\xc3\xa9rea dificil: \',\n                                    INPUT(_type=\'checkbox\', _id=\'chk_via_aerea_dif\', _name=\'chk_atencao_via_aerea_dificil\', _value=\'sim\'),\n                                    BR(),\n                                    \'Hist\xc3\xb3ria de anafilaxia: \',\n                                    INPUT(_type=\'checkbox\', _id=\'chk_anafilaxia\', _name=\'chk_atencao_historia_de_anafilaxia\', _value=\'sim\'),\n                                    BR(),\n                                    \'Est\xc3\xb4mago Cheio: \',\n                                    INPUT(_type=\'checkbox\', _id=\'chk_estomago_cheio\', _name=\'chk_atencao_estomago_cheio\', _value=\'sim\'),\n                                    BR(),\n                                    \'Repor. Cortic\xc3\xb3ide: \',\n                                    INPUT(_type=\'checkbox\', _id=\'chk_corticoide\', _name=\'chk_atencao_corticoide\', _value=\'sim\'),\n                                    BR(),\n                                    \'Profilaxia Endocardite Bacteriana: \',\n                                    INPUT(_type=\'checkbox\', _id=\'chk_profilaxia\', _name=\'chk_atencao_endocardite_bacteriana\', _value=\'sim\'),\n                                )\n                            ),\n                            HR(),\n                            DIV(_id=\'div_exames_laboratoriais\',\n                                *FIELDSET(\n                                    LEGEND(_id=\'lgd_exames_lab\',\n                                           *\'EXAMES LABORATORIAS\'),\n                                    "HB: ",\n                                    INPUT(_type=\'text\', _id=\'txt_hb\', _name=\'hb\'),\n                                    "HT: ",\n                                    INPUT(_type=\'text\', _id=\'txt_ht\', _name=\'ht\'),\n                                    "HM: ",\n                                    INPUT(_type=\'text\', _id=\'txt_hm\', _name=\'hm\'),\n                                    "Plaq: ",\n                                    INPUT(_type=\'text\', _id=\'txt_plaq\', _name=\'plaquetas\'),\n                                    "Gli: ",\n                                    INPUT(_type=\'text\', _id=\'txt_gli\', _name=\'glicose\'),\n                                    "U: ",\n                                    INPUT(_type=\'text\', _id=\'txt_u\', _name=\'u\'),\n                                    "CR: ",\n                                    INPUT(_type=\'text\', _id=\'txt_cr\', _name=\'cr\'),\n                                    "NA+: ",\n                                    INPUT(_type=\'text\', _id=\'txt_na\', _name=\'na+\'),\n                                    "K+: ",\n                                    INPUT(_type=\'text\', _id=\'txt_k\', _name=\'k+\'),\n                                )\n                            ),\n                            HR(),\n                            DIV(_id=\'div_eventos_operatorios\',\n                                *FIELDSET(\n                                    LEGEND(_id=\'lgd_eventos_operatorios\',\n                                           *\'EVENTOS OPERAT\xc3\x93RIOS\'),\n                                    \'Dura\xc3\xa7\xc3\xa3o do Procedimento\',\n                                    INPUT(_type=\'text\', _id=\'txt_duracao_procedimento\', _name=\'txt_duracao_procedimento\'),\n                                    \'Dura\xc3\xa7\xc3\xa3o da Cirurgia\',\n                                    INPUT(_type=\'text\', _id=\'txt_duracao_cirurgia\', _name=\'txt_duracao_cirurgia\'),\n                                )\n                            ),\n                            BR(),\n                            HR(),\n                            DIV(_id=\'div_monitorizacao\',\n                                *FIELDSET(\n                                    LEGEND(_id=\'lgd_monitorizacao\',\n                                           *\'MONITORIZA\xc3\x87\xc3\x83O\'),\n                                    \'Cardiosc\xc3\xb3pio: \',\n                                    INPUT(_id=\'radio_cardioscopio_sim\',\n                                          _type=\'radio\',\n                                          _name=\'cardioscopio\',\n                                          _value=\'sim\'),\n                                    \'sim\',\n                                    INPUT(_id=\'radio_cardioscopio_nao\',\n                                          _type=\'radio\',\n                                          _name=\'cardioscopio\',\n                                          _value=\'nao\'),\n                                    \'n\xc3\xa3o\',\n                                    BR(),\n                                    \'Ox. Digital: \',\n                                    INPUT(_id=\'radio_ox_digital_sim\',\n                                          _type=\'radio\',\n                                          _name=\'ox_digital\',\n                                          _value=\'sim\'),\n                                    \'sim\',\n                                    INPUT(_id=\'radio_ox_digital_nao\',\n                                          _type=\'radio\',\n                                          _name=\'ox_digital\',\n                                          _value=\'nao\'),\n                                    \'n\xc3\xa3o\',\n                                    BR(),\n                                    \'PNI: \',\n                                    INPUT(_id=\'radio_pni_sim\',\n                                          _type=\'radio\',\n                                          _name=\'pni\',\n                                          _value=\'sim\'),\n                                    \'sim\',\n                                    INPUT(_id=\'radio_pni_nao\',\n                                          _type=\'radio\',\n                                          _name=\'pni\',\n                                          _value=\'nao\'),\n                                    \'n\xc3\xa3o\',\n                                    BR(),\n                                    \'PAINV: \',\n                                    INPUT(_id=\'radio_painv_sim\',\n                                          _type=\'radio\',\n                                          _name=\'painv\',\n                                          _value=\'sim\'),\n                                    \'sim\',\n                                    INPUT(_id=\'radio_painv_nao\',\n                                          _type=\'radio\',\n                                          _name=\'painv\',\n                                          _value=\'nao\'),\n                                    \'n\xc3\xa3o\',\n                                    BR(),\n                                    \'CAPN\xc3\x93GRAFO: \',\n                                    INPUT(_id=\'radio_capnografo_sim\',\n                                          _type=\'radio\',\n                                          _name=\'capnografo\',\n                                          _value=\'sim\'),\n                                    \'sim\',\n                                    INPUT(_id=\'radio_capnografo_nao\',\n                                          _type=\'radio\',\n                                          _name=\'capnografo\',\n                                          _value=\'nao\'),\n                                    \'n\xc3\xa3o\',\n                                    BR(),\n                                    \'An. Gases: \',\n                                    INPUT(_id=\'radio_an_gases_sim\',\n                                          _type=\'radio\',\n                                          _name=\'an_gases\',\n                                          _value=\'sim\'),\n                                    \'sim\',\n                                    INPUT(_id=\'radio_an_gases_nao\',\n                                          _type=\'radio\',\n                                          _name=\'an_gases\',\n                                          _value=\'nao\'),\n                                    \'n\xc3\xa3o\',\n                                    BR(),\n                                    \'outros: \',\n                                    INPUT(_type=\'text\', _id=\'outros_monitorizacao\', _name=\'outros_monitorizacao\')\n                                )\n                            ),\n                            DIV(_id=\'div_tecnica\',\n                                *FIELDSET(\n                                    LEGEND(_id=\'lgd_tecnica\',\n                                           *\'T\xc3\x89CNICA\'),\n                                    \'Geral: \',\n                                    INPUT(_id=\'radio_tec_geral_sim\',\n                                          _type=\'radio\',\n                                          _name=\'tec_geral\',\n                                          _value=\'sim\'),\n                                    \'sim\',\n                                    INPUT(_id=\'radio_tec_geral_nao\',\n                                          _type=\'radio\',\n                                          _name=\'tec_geral\',\n                                          _value=\'nao\'),\n                                    \'n\xc3\xa3o\',\n                                    BR(),\n                                    \'Bloqueio regional ou Plexo: \',\n                                    INPUT(_id=\'radio_plexo_sim\',\n                                          _type=\'radio\',\n                                          _name=\'plexo\',\n                                          _value=\'sim\'),\n                                    \'sim\',\n                                    INPUT(_id=\'radio_plexo_nao\',\n                                          _type=\'radio\',\n                                          _name=\'plexo\',\n                                          _value=\'nao\'),\n                                    \'n\xc3\xa3o\',\n                                    BR(),\n                                    \'Bloqueio de Neuroeixo: \',\n                                    INPUT(_id=\'radio_neuroeixo_sim\',\n                                          _type=\'radio\',\n                                          _name=\'bloqueio_neuroeixo\',\n                                          _value=\'sim\'),\n                                    \'sim\',\n                                    INPUT(_id=\'radio_neuroeixo_nao\',\n                                          _type=\'radio\',\n                                          _name=\'bloqueio_neuroeixo\',\n                                          _value=\'nao\'),\n                                    \'n\xc3\xa3o\',\n                                    BR(),\n                                    \'Combinada: \',\n                                    INPUT(_id=\'radio_combinada_sim\',\n                                          _type=\'radio\',\n                                          _name=\'combinada\',\n                                          _value=\'sim\'),\n                                    \'sim\',\n                                    INPUT(_id=\'radio_combinada_nao\',\n                                          _type=\'radio\',\n                                          _name=\'combinada\',\n                                          _value=\'nao\'),\n                                    \'n\xc3\xa3o\',\n                                    BR(),\n                                    \'Seda\xc3\xa7\xc3\xa3o: \',\n                                    INPUT(_id=\'radio_sedacao_sim\',\n                                          _type=\'radio\',\n                                          _name=\'sedacao\',\n                                          _value=\'sim\'),\n                                    \'sim\',\n                                    INPUT(_id=\'radio_sedacao_nao\',\n                                          _type=\'radio\',\n                                          _name=\'sedacao\',\n                                          _value=\'nao\'),\n                                    \'n\xc3\xa3o\',\n                                    BR(),\n                                )\n\n                            ),\n                            DIV(_id=\'div_acesso_vias_aereas\',\n                                *FIELDSET(\n                                    LEGEND(_id=\'lgd_acesso_vias_aereas\',\n                                           *\'ACESSO A VIA A\xc3\x89REA\'),\n                                    \'Sub M\xc3\xa1scara: \',\n                                    INPUT(_id=\'radio_sub_mascara_sim\',\n                                          _type=\'radio\',\n                                          _name=\'sub_mascara\',\n                                          _value=\'sim\'),\n                                    \'sim\',\n                                    INPUT(_id=\'radio_sub_mascara_nao\',\n                                          _type=\'radio\',\n                                          _name=\'sub_mascara\',\n                                          _value=\'nao\'),\n                                    \'n\xc3\xa3o\',\n                                    BR(),\n                                    \'Canula Naso: \',\n                                    INPUT(_id=\'radio_can_naso_sim\',\n                                          _type=\'radio\',\n                                          _name=\'canula_naso\',\n                                          _value=\'sim\'),\n                                    \'sim\',\n                                    INPUT(_id=\'radio_can_naso_nao\',\n                                          _type=\'radio\',\n                                          _name=\'canula_naso\',\n                                          _value=\'nao\'),\n                                    \'n\xc3\xa3o\',\n                                    BR(),\n                                    \'Canula Orofaringea: \',\n                                    INPUT(_id=\'radio_can_orofaringea_sim\',\n                                          _type=\'radio\',\n                                          _name=\'canula_orofaringea\',\n                                          _value=\'sim\'),\n                                    \'sim\',\n                                    INPUT(_id=\'radio_can_orofaringea_nao\',\n                                          _type=\'radio\',\n                                          _name=\'canula_orofaringea\',\n                                          _value=\'nao\'),\n                                    \'n\xc3\xa3o\',\n                                    BR(),\n                                    \'M\xc3\xa1scara Lar\xc3\xadngea: \',\n                                    INPUT(_id=\'radio_masc_laringea_sim\',\n                                          _type=\'radio\',\n                                          _name=\'mascara_laringea\',\n                                          _value=\'sim\'),\n                                    \'sim\',\n                                    INPUT(_id=\'radio_masc_laringea_nao\',\n                                          _type=\'radio\',\n                                          _name=\'mascara_laringea\',\n                                          _value=\'nao\'),\n                                    \'n\xc3\xa3o\',\n                                    DIV(_id=\'div_masc_laringea\',\n                                        *FIELDSET(\n                                            \'NR:\',\n                                            INPUT(_typr=\'text\', _id=\'nr_masc_laringea\', _name=\'nr_mascara_laringea\')\n                                        )),\n                                    BR(),\n                                    \'Intuba\xc3\xa7\xc3\xa3o Oro Traqueal: \',\n                                    INPUT(_id=\'radio_int_oro_traqueal_sim\',\n                                          _type=\'radio\',\n                                          _name=\'intubacao_oro_traqueal\',\n                                          _value=\'sim\'),\n                                    \'sim\',\n                                    INPUT(_id=\'radio_int_oro_traqueal_nao\',\n                                          _type=\'radio\',\n                                          _name=\'intubacao_oro_traqueal\',\n                                          _value=\'nao\'),\n                                    \'n\xc3\xa3o\',\n                                    DIV(_id=\'div_int_oro_traqueal\',\n                                        *FIELDSET(\n                                            \'Di\xc3\xa2metro do tubo: \',\n                                            INPUT(_typr=\'text\', _id=\'diametro_tubo\', _name=\'diametro_tubo\'),\n                                            BR(),\n                                            \'Tipo naso: \',\n                                            INPUT(_id=\'radio_tipo_naso_sim\',\n                                                  _type=\'radio\',\n                                                  _name=\'tipo_naso\',\n                                                  _value=\'sim\'),\n                                            \'sim\',\n                                            INPUT(_id=\'radio_tipo_naso_nao\',\n                                                  _type=\'radio\',\n                                                  _name=\'tipo_naso\',\n                                                  _value=\'nao\'),\n                                            \'n\xc3\xa3o\',\n                                            BR(),\n                                            \'Tipo aramado: \',\n                                            INPUT(_id=\'radio_tipo_aramado_sim\',\n                                                  _type=\'radio\',\n                                                  _name=\'tipo_aramado\',\n                                                  _value=\'sim\'),\n                                            \'sim\',\n                                            INPUT(_id=\'radio_tipo_aramado_nao\',\n                                                  _type=\'radio\',\n                                                  _name=\'tipo_aramado\',\n                                                  _value=\'nao\'),\n                                            \'n\xc3\xa3o\',\n                                            BR(),\n                                            \'Tipo dupla luz: \',\n                                            INPUT(_id=\'radio_tipo_dupla_luz_sim\',\n                                                  _type=\'radio\',\n                                                  _name=\'dupla_luz\',\n                                                  _value=\'sim\'),\n                                            \'sim\',\n                                            INPUT(_id=\'radio_tipo_dupla_luz_nao\',\n                                                  _type=\'radio\',\n                                                  _name=\'dupla_luz\',\n                                                  _value=\'nao\'),\n                                            \'n\xc3\xa3o\',\n                                            BR(),\n                                            \'Tipo balao: \',\n                                            INPUT(_id=\'radio_balao_sim\',\n                                                  _type=\'radio\',\n                                                  _name=\'balao\',\n                                                  _value=\'sim\'),\n                                            \'sim\',\n                                            INPUT(_id=\'radio_balao_nao\',\n                                                  _type=\'radio\',\n                                                  _name=\'balao\',\n                                                  _value=\'nao\'),\n                                            \'n\xc3\xa3o\',\n                                            BR(),\n                                            \'Laringoscopia: \',\n                                            INPUT(_id=\'radio_laringoscopia_sim\',\n                                                  _type=\'radio\',\n                                                  _name=\'laringoscopia\',\n                                                  _value=\'sim\'),\n                                            \'sim\',\n                                            INPUT(_id=\'radio_laringoscopia_nao\',\n                                                  _type=\'radio\',\n                                                  _name=\'laringoscopia\',\n                                                  _value=\'nao\'),\n                                            \'n\xc3\xa3o\',\n                                            BR(),\n                                            \'Broncofibroscopia: \',\n                                            INPUT(_id=\'radio_broncofibroscopia_sim\',\n                                                  _type=\'radio\',\n                                                  _name=\'broncofibroscopia\',\n                                                  _value=\'sim\'),\n                                            \'sim\',\n                                            INPUT(_id=\'radio_broncofibroscopia_nao\',\n                                                  _type=\'radio\',\n                                                  _name=\'broncofibroscopia\',\n                                                  _value=\'nao\'),\n                                            \'n\xc3\xa3o\',\n                                            BR(),\n                                            \'Estilete luminoso: \',\n                                            INPUT(_id=\'radio_est_luminoso_sim\',\n                                                  _type=\'radio\',\n                                                  _name=\'estilete_luminoso\',\n                                                  _value=\'sim\'),\n                                            \'sim\',\n                                            INPUT(_id=\'radio_est_luminoso_nao\',\n                                                  _type=\'radio\',\n                                                  _name=\'estilete_luminoso\',\n                                                  _value=\'nao\'),\n                                            \'n\xc3\xa3o\',\n                                            BR(),\n                                            \'Videolaringoscopia: \',\n                                            INPUT(_id=\'radio_videolaringoscopia_sim\',\n                                                  _type=\'radio\',\n                                                  _name=\'videolaringoscopia\',\n                                                  _value=\'sim\'),\n                                            \'sim\',\n                                            INPUT(_id=\'radio_videolaringoscopia_nao\',\n                                                  _type=\'radio\',\n                                                  _name=\'videolaringoscopia\',\n                                                  _value=\'nao\'),\n                                            \'n\xc3\xa3o\',\n                                        )\n                                    ),\n                                    BR(),\n                                )\n                            ),\n                            HR(),\n                            BR(),\n                            DIV(_id=\'div_agentes\',\n                                *FIELDSET(\n                                    LEGEND(_id=\'lgd_agentes\',\n                                           *\'Agentes\'),\n                                    \'Nome: \',\n                                    INPUT(_type=\'text\', _id=\'agente1\'),\n                                    INPUT(_type=\'button\', _id=\'btn_inclui_agente\', _value=\'+\'),\n                                )),\n                            BR(),\n                            HR(),\n                            FIELDSET(\n                                LEGEND(_id=\'lgd_dados_cirurgia\',\n                                       *\'DADOS CIRURGIA\'),\n                                \'Cirurgia: \',\n                                INPUT(_type=\'text\', _id=\'cirurgia\', _name=\'cirurgia\'),\n                                \'Anestesista: \',\n                                INPUT(_type=\'text\', _id=\'anestesia\', _name=\'anestesia\'),\n                                \'Cirurgi\xc3\xa3o: \',\n                                INPUT(_type=\'text\', _id=\'cirurgiao\', _name=\'cirurgiap\'),\n                            ),\n                            BR(),\n                            HR()\n                        )\n                    )\n                )\n            )\n        ),\n        INPUT(_type=\'submit\')\n    )\n    return campos\n\n\ndef index():\n    teste = \'\'\n\n    form_incluir = gerar_form()\n\n    if form_incluir.accepts(request.vars):\n        teste = db.paciente.insert(nr_registro=request.vars.nr_registro,\n                                   matricula_hugg=request.vars.matricula_hugg,\n                                   nome=request.vars.nome,\n                                   data=request.vars.data,\n                                   ficha_nr=request.vars.ficha_nr,\n                                   enfermaria=request.vars.enfermaria,\n                                   leito=request.vars.leito,\n                                   idade=request.vars.idade,\n                                   asa=request.vars.asa,\n                                   clinica=request.vars.clinica,\n                                   so=request.vars.so,\n                                   dados_cadastrais_e=request.vars.dados_cadastrais_e,\n                                   dados_cadastrais_sexo=request.vars.dados_cadastrais_sexo,\n                                   altura=request.vars.altura,\n                                   peso=request.vars.peso,\n                                   temperatura=request.vars.temperatura,\n                                   pulso=request.vars.pulso,\n                                   respiracao=request.vars.respiracao,\n                                   pa=request.vars.pa,\n                                   diagnostico=request.vars.diagnostico,\n                                   dad0s_cirurgia_anterior=request.vars.dad0s_cirurgia_anterior,\n                                   tabagismo=request.vars.tabagismo,\n                                   asma=request.vars.asma,\n                                   tosse=request.vars.tosse,\n                                   dpoc=request.vars.dpoc,\n                                   bk_insuficiencia=request.vars.bk_insuficiencia,\n                                   derrame_pleural=request.vars.derrame_pleural,\n                                   circunferencia_toraxica=request.vars.circunferencia_toraxica,\n                                   has=request.vars.has,\n                                   icc=request.vars.icc,\n                                   anglina=request.vars.anglina,\n                                   iam=request.vars.iam,\n                                   valvulopalla=request.vars.valvulopalla,\n                                   marcapasso=request.vars.marcapasso,\n                                   arritmias=request.vars.arritmias,\n                                   insuf_venosa=request.vars.insuf_venosa,\n                                   diabetes=request.vars.diabetes,\n                                   hipertireoidismo=request.vars.hipertireoidismo,\n                                   endocrinopalias=request.vars.endocrinopalias,\n                                   cirrose=request.vars.cirrose,\n                                   hepatite_a=request.vars.hepatite_a,\n                                   hepatite_b=request.vars.hepatite_b,\n                                   hepatite_c=request.vars.hepatite_c,\n                                   elilismo=request.vars.elilismo,\n                                   hiv=request.vars.elilismo,\n                                   infeccoes_oportunistas=request.vars.infeccoes_oportunistas,\n                                   insuf_renal=request.vars.insuf_renal,\n                                   hemodialise_peritoneal=request.vars.hemodialise_peritoneal,\n                                   disturbios_hemorragicos=request.vars.disturbios_hemorragicos,\n                                   avc_previo=request.vars.avc_previo,\n                                   doencas_psiquiatricas=request.vars.doencas_psiquiatricas,\n                                   doencas_neuromuscular=request.vars.doencas_neuromuscular,\n                                   doencas_reumaticas=request.vars.doencas_reumaticas,\n                                   alteracao_neurologica=request.vars.alteracao_neurologica,\n                                   hemotransfusao_previa=request.vars.hemotransfusao_previa,\n                                   obs_gerais=request.vars.obs_gerais,\n                                   medicamentos_em_uso=request.vars.medicamentos_em_uso,\n                                   alergias=request.vars.alergias,\n                                   cirurgias_previas=request.vars.cirurgias_previas,\n                                   mallampati=request.vars.mallampati,\n                                   abertura_boca=request.vars.abertura_boca,\n                                   dentes_falhos=request.vars.dentes_falhos,\n                                   protese=request.vars.protese,\n                                   macroglossia=request.vars.macroglossia,\n                                   distancia_esterno_mento=request.vars.distancia_esterno_mento,\n                                   pescoco_curto_longo=request.vars.pescoco_curto_longo,\n                                   mobilidade_cervical=request.vars.mobilidade_cervical,\n                                   massa_cervical=request.vars.massa_cervical,\n                                   desvio_traqueia=request.vars.desvio_traqueia,\n                                   distancia_mento_hiloide=request.vars.distancia_mento_hiloide,\n                                   circunferencia_cervical=request.vars.circunferencia_cervical,\n                                   dificuldade_intubacao=request.vars.dificuldade_intubacao,\n                                   via_aerea_dificil=request.vars.via_aerea_dificil,\n                                   historia_de_anafilaxia=request.vars.historia_de_anafilaxia,\n                                   estomago_cheio=request.vars.estomago_cheio,\n                                   corticoide=request.vars.corticoide,\n                                   endocardite_bacteriana=request.vars.endocardite_bacteriana,\n                                   hb=request.vars.hb,\n                                   ht=request.vars.ht,\n                                   hm=request.vars.hm,\n                                   plaquetas=request.vars.plaquetas,\n                                   glicose=request.vars.glicose,\n                                   u=request.vars.u,\n                                   cr=request.vars.cr,\n                                   na=request.vars.na,\n                                   k=request.vars.k,\n                                   duracao_procedimento=request.vars.duracao_procedimento,\n                                   duracao_cirurgia=request.vars.duracao_cirurgia,\n                                   cardioscopio=request.vars.cardioscopio,\n                                   ox_digital=request.vars.ox_digital,\n                                   pni=request.vars.pni,\n                                   painv=request.vars.painv,\n                                   capnografo=request.vars.capnografo,\n                                   an_gases=request.vars.an_gases,\n                                   outros_monitorizacao=request.vars.outros_monitorizacao,\n                                   tec_geral=request.vars.tec_geral,\n                                   plexo=request.vars.plexo,\n                                   bloqueio_neuroeixo=request.vars.bloqueio_neuroeixo,\n                                   combinada=request.vars.combinada,\n                                   sedacao=request.vars.sedacao,\n                                   sub_mascara=request.vars.sub_mascara,\n                                   canula_naso=request.vars.canula_naso,\n                                   canula_orofaringea=request.vars.canula_orofaringea,\n                                   mascara_laringea=request.vars.mascara_laringea,\n                                   nr_mascara_laringea=request.vars.nr_mascara_laringea,\n                                   intubacao_oro_traqueal=request.vars.intubacao_oro_traqueal,\n                                   tipo_naso=request.vars.tipo_naso,\n                                   tipo_aramado=request.vars.tipo_aramado,\n                                   dupla_luz=request.vars.dupla_luz,\n                                   balao=request.vars.balao,\n                                   laringoscopia=request.vars.laringoscopia,\n                                   broncofibroscopia=request.vars.broncofibroscopia,\n                                   estilete_luminoso=request.vars.estilete_luminoso,\n                                   videolaringoscopia=request.vars.videolaringoscopia,\n                                   cirurgia=request.vars.cirurgia,\n                                   anestesia=request.vars.anestesia,\n                                   cirurgiao=request.vars.cirurgiao)\n\n    return dict(forulario=form_incluir, teste=teste)\nresponse._vars=response._caller(index)\n'
p7
sS'snapshot'
p8
(dp9
S'exception'
p10
(dp11
S'__module__'
p12
S"'gluon.contrib.pg8000.errors'"
p13
sS'__getslice__'
p14
S"<method-wrapper '__getslice__' of ProgrammingError object>"
p15
sS'__str__'
p16
S"<method-wrapper '__str__' of ProgrammingError object>"
p17
sS'__reduce__'
p18
S'<built-in method __reduce__ of ProgrammingError object>'
p19
sS'__dict__'
p20
S'{}'
p21
sS'__sizeof__'
p22
S'<built-in method __sizeof__ of ProgrammingError object>'
p23
sS'__weakref__'
p24
S'None'
p25
sS'__init__'
p26
S"<method-wrapper '__init__' of ProgrammingError object>"
p27
sS'__setattr__'
p28
S"<method-wrapper '__setattr__' of ProgrammingError object>"
p29
sS'__reduce_ex__'
p30
S'<built-in method __reduce_ex__ of ProgrammingError object>'
p31
sS'__new__'
p32
S'<built-in method __new__ of type object>'
p33
sS'__format__'
p34
S'<built-in method __format__ of ProgrammingError object>'
p35
sS'__class__'
p36
S"<class 'gluon.contrib.pg8000.errors.ProgrammingError'>"
p37
sS'__doc__'
p38
S'None'
p39
sS'__getitem__'
p40
S"<method-wrapper '__getitem__' of ProgrammingError object>"
p41
sS'__setstate__'
p42
S'<built-in method __setstate__ of ProgrammingError object>'
p43
sS'__getattribute__'
p44
S"<method-wrapper '__getattribute__' of ProgrammingError object>"
p45
sS'args'
p46
S'(\'ERROR\', \'22008\', \'date/time field value out of range: "15/11/1971"\')'
p47
sS'__subclasshook__'
p48
S'<built-in method __subclasshook__ of type object>'
p49
sS'__unicode__'
p50
S'<built-in method __unicode__ of ProgrammingError object>'
p51
sS'__delattr__'
p52
S"<method-wrapper '__delattr__' of ProgrammingError object>"
p53
sS'__repr__'
p54
S"<method-wrapper '__repr__' of ProgrammingError object>"
p55
sS'__hash__'
p56
S"<method-wrapper '__hash__' of ProgrammingError object>"
p57
ssS'evalue'
p58
S'(\'ERROR\', \'22008\', \'date/time field value out of range: "15/11/1971"\')'
p59
sS'request'
p60
cgluon.html
XML_unpickle
p61
(S's\n\xa3\x00\x00<div><table><tr><td style="font-weight:bold;vertical-align:top;">ajax</td><td style="vertical-align:top;">:</td><td><div>False</div></td></tr><tr><td style="font-weight:bold;vertical-align:top;">application</td><td style="vertical-align:top;">:</td><td><div>anestesia</div></td></tr><tr><td style="font-weight:bold;vertical-align:top;">args</td><td style="vertical-align:top;">:</td><td><div><table></table></div></td></tr><tr><td style="font-weight:bold;vertical-align:top;">cid</td><td style="vertical-align:top;">:</td><td><div>None</div></td></tr><tr><td style="font-weight:bold;vertical-align:top;">client</td><td style="vertical-align:top;">:</td><td><div>127.0.0.1</div></td></tr><tr><td style="font-weight:bold;vertical-align:top;">controller</td><td style="vertical-align:top;">:</td><td><div>pagina_incluir</div></td></tr><tr><td style="font-weight:bold;vertical-align:top;">cookies</td><td style="vertical-align:top;">:</td><td><div><table><tr><td style="font-weight:bold;vertical-align:top;">session_data_examples</td><td style="vertical-align:top;">:</td><td><div>a632629af9fb55f9fa76a3571908672d:sN1Elcivdjn9AEoZt6p9CH1OYrd76hTOUSbiLoxyR_yP3VUKl1SZjORiT_6q2TsxL5KRFbKY7XlUqLQ8qUQ9fdKSc6SQwqz_hs_xRWB1svIa4GO-qZqNh0xkugb0opWHtCh3BhX5xMfeMOBP2L6lUMmh1yUcuvaOH6visCdSEsDn4ByzGUN5ylEsNFejbxELSaAOwlYRb4roFr9TXARwSQ0S6u7zw0eItm2g8Z9bm7H55aH4W870LM4wPH3cOGqzJmQwzbOivkXCtr0z5-WQ_HDnS1WI3ZTDruG4FQa_MF9avDDeu6JZ8vLf9CeyaUOT<table><tr><td style="font-weight:bold;vertical-align:top;">comment</td><td style="vertical-align:top;">:</td><td><div></div></td></tr><tr><td style="font-weight:bold;vertical-align:top;">domain</td><td style="vertical-align:top;">:</td><td><div></div></td></tr><tr><td style="font-weight:bold;vertical-align:top;">expires</td><td style="vertical-align:top;">:</td><td><div></div></td></tr><tr><td style="font-weight:bold;vertical-align:top;">httponly</td><td style="vertical-align:top;">:</td><td><div></div></td></tr><tr><td style="font-weight:bold;vertical-align:top;">max-age</td><td style="vertical-align:top;">:</td><td><div></div></td></tr><tr><td style="font-weight:bold;vertical-align:top;">path</td><td style="vertical-align:top;">:</td><td><div></div></td></tr><tr><td style="font-weight:bold;vertical-align:top;">secure</td><td style="vertical-align:top;">:</td><td><div></div></td></tr><tr><td style="font-weight:bold;vertical-align:top;">version</td><td style="vertical-align:top;">:</td><td><div></div></td></tr></table></div></td></tr><tr><td style="font-weight:bold;vertical-align:top;">session_id_admin</td><td style="vertical-align:top;">:</td><td><div>127.0.0.1-8821195d-d852-402b-9210-e24638d99d35<table><tr><td style="font-weight:bold;vertical-align:top;">comment</td><td style="vertical-align:top;">:</td><td><div></div></td></tr><tr><td style="font-weight:bold;vertical-align:top;">domain</td><td style="vertical-align:top;">:</td><td><div></div></td></tr><tr><td style="font-weight:bold;vertical-align:top;">expires</td><td style="vertical-align:top;">:</td><td><div></div></td></tr><tr><td style="font-weight:bold;vertical-align:top;">httponly</td><td style="vertical-align:top;">:</td><td><div></div></td></tr><tr><td style="font-weight:bold;vertical-align:top;">max-age</td><td style="vertical-align:top;">:</td><td><div></div></td></tr><tr><td style="font-weight:bold;vertical-align:top;">path</td><td style="vertical-align:top;">:</td><td><div></div></td></tr><tr><td style="font-weight:bold;vertical-align:top;">secure</td><td style="vertical-align:top;">:</td><td><div></div></td></tr><tr><td style="font-weight:bold;vertical-align:top;">version</td><td style="vertical-align:top;">:</td><td><div></div></td></tr></table></div></td></tr><tr><td style="font-weight:bold;vertical-align:top;">session_id_anestesia</td><td style="vertical-align:top;">:</td><td><div>127.0.0.1-f3e79e0a-00f4-4121-a50b-cf8a4b1af40b<table><tr><td style="font-weight:bold;vertical-align:top;">comment</td><td style="vertical-align:top;">:</td><td><div></div></td></tr><tr><td style="font-weight:bold;vertical-align:top;">domain</td><td style="vertical-align:top;">:</td><td><div></div></td></tr><tr><td style="font-weight:bold;vertical-align:top;">expires</td><td style="vertical-align:top;">:</td><td><div></div></td></tr><tr><td style="font-weight:bold;vertical-align:top;">httponly</td><td style="vertical-align:top;">:</td><td><div></div></td></tr><tr><td style="font-weight:bold;vertical-align:top;">max-age</td><td style="vertical-align:top;">:</td><td><div></div></td></tr><tr><td style="font-weight:bold;vertical-align:top;">path</td><td style="vertical-align:top;">:</td><td><div></div></td></tr><tr><td style="font-weight:bold;vertical-align:top;">secure</td><td style="vertical-align:top;">:</td><td><div></div></td></tr><tr><td style="font-weight:bold;vertical-align:top;">version</td><td style="vertical-align:top;">:</td><td><div></div></td></tr></table></div></td></tr><tr><td style="font-weight:bold;vertical-align:top;">session_id_controle</td><td style="vertical-align:top;">:</td><td><div>127.0.0.1-8d5cd6e4-1136-46a7-8777-e2dc8b975cc3<table><tr><td style="font-weight:bold;vertical-align:top;">comment</td><td style="vertical-align:top;">:</td><td><div></div></td></tr><tr><td style="font-weight:bold;vertical-align:top;">domain</td><td style="vertical-align:top;">:</td><td><div></div></td></tr><tr><td style="font-weight:bold;vertical-align:top;">expires</td><td style="vertical-align:top;">:</td><td><div></div></td></tr><tr><td style="font-weight:bold;vertical-align:top;">httponly</td><td style="vertical-align:top;">:</td><td><div></div></td></tr><tr><td style="font-weight:bold;vertical-align:top;">max-age</td><td style="vertical-align:top;">:</td><td><div></div></td></tr><tr><td style="font-weight:bold;vertical-align:top;">path</td><td style="vertical-align:top;">:</td><td><div></div></td></tr><tr><td style="font-weight:bold;vertical-align:top;">secure</td><td style="vertical-align:top;">:</td><td><div></div></td></tr><tr><td style="font-weight:bold;vertical-align:top;">version</td><td style="vertical-align:top;">:</td><td><div></div></td></tr></table></div></td></tr><tr><td style="font-weight:bold;vertical-align:top;">session_id_examples</td><td style="vertical-align:top;">:</td><td><div>True<table><tr><td style="font-weight:bold;vertical-align:top;">comment</td><td style="vertical-align:top;">:</td><td><div></div></td></tr><tr><td style="font-weight:bold;vertical-align:top;">domain</td><td style="vertical-align:top;">:</td><td><div></div></td></tr><tr><td style="font-weight:bold;vertical-align:top;">expires</td><td style="vertical-align:top;">:</td><td><div></div></td></tr><tr><td style="font-weight:bold;vertical-align:top;">httponly</td><td style="vertical-align:top;">:</td><td><div></div></td></tr><tr><td style="font-weight:bold;vertical-align:top;">max-age</td><td style="vertical-align:top;">:</td><td><div></div></td></tr><tr><td style="font-weight:bold;vertical-align:top;">path</td><td style="vertical-align:top;">:</td><td><div></div></td></tr><tr><td style="font-weight:bold;vertical-align:top;">secure</td><td style="vertical-align:top;">:</td><td><div></div></td></tr><tr><td style="font-weight:bold;vertical-align:top;">version</td><td style="vertical-align:top;">:</td><td><div></div></td></tr></table></div></td></tr><tr><td style="font-weight:bold;vertical-align:top;">session_id_formulario</td><td style="vertical-align:top;">:</td><td><div>127.0.0.1-ad3203e2-ca0b-480a-bc23-84d358ff6197<table><tr><td style="font-weight:bold;vertical-align:top;">comment</td><td style="vertical-align:top;">:</td><td><div></div></td></tr><tr><td style="font-weight:bold;vertical-align:top;">domain</td><td style="vertical-align:top;">:</td><td><div></div></td></tr><tr><td style="font-weight:bold;vertical-align:top;">expires</td><td style="vertical-align:top;">:</td><td><div></div></td></tr><tr><td style="font-weight:bold;vertical-align:top;">httponly</td><td style="vertical-align:top;">:</td><td><div></div></td></tr><tr><td style="font-weight:bold;vertical-align:top;">max-age</td><td style="vertical-align:top;">:</td><td><div></div></td></tr><tr><td style="font-weight:bold;vertical-align:top;">path</td><td style="vertical-align:top;">:</td><td><div></div></td></tr><tr><td style="font-weight:bold;vertical-align:top;">secure</td><td style="vertical-align:top;">:</td><td><div></div></td></tr><tr><td style="font-weight:bold;vertical-align:top;">version</td><td style="vertical-align:top;">:</td><td><div></div></td></tr></table></div></td></tr><tr><td style="font-weight:bold;vertical-align:top;">session_id_myapp</td><td style="vertical-align:top;">:</td><td><div>127.0.0.1-dd8a077d-66b1-4b2d-808d-5213f9618b8a<table><tr><td style="font-weight:bold;vertical-align:top;">comment</td><td style="vertical-align:top;">:</td><td><div></div></td></tr><tr><td style="font-weight:bold;vertical-align:top;">domain</td><td style="vertical-align:top;">:</td><td><div></div></td></tr><tr><td style="font-weight:bold;vertical-align:top;">expires</td><td style="vertical-align:top;">:</td><td><div></div></td></tr><tr><td style="font-weight:bold;vertical-align:top;">httponly</td><td style="vertical-align:top;">:</td><td><div></div></td></tr><tr><td style="font-weight:bold;vertical-align:top;">max-age</td><td style="vertical-align:top;">:</td><td><div></div></td></tr><tr><td style="font-weight:bold;vertical-align:top;">path</td><td style="vertical-align:top;">:</td><td><div></div></td></tr><tr><td style="font-weight:bold;vertical-align:top;">secure</td><td style="vertical-align:top;">:</td><td><div></div></td></tr><tr><td style="font-weight:bold;vertical-align:top;">version</td><td style="vertical-align:top;">:</td><td><div></div></td></tr></table></div></td></tr><tr><td style="font-weight:bold;vertical-align:top;">session_id_myappzero</td><td style="vertical-align:top;">:</td><td><div>127.0.0.1-41ad397c-50c5-4858-9e39-6c5ae8bdc5a1<table><tr><td style="font-weight:bold;vertical-align:top;">comment</td><td style="vertical-align:top;">:</td><td><div></div></td></tr><tr><td style="font-weight:bold;vertical-align:top;">domain</td><td style="vertical-align:top;">:</td><td><div></div></td></tr><tr><td style="font-weight:bold;vertical-align:top;">expires</td><td style="vertical-align:top;">:</td><td><div></div></td></tr><tr><td style="font-weight:bold;vertical-align:top;">httponly</td><td style="vertical-align:top;">:</td><td><div></div></td></tr><tr><td style="font-weight:bold;vertical-align:top;">max-age</td><td style="vertical-align:top;">:</td><td><div></div></td></tr><tr><td style="font-weight:bold;vertical-align:top;">path</td><td style="vertical-align:top;">:</td><td><div></div></td></tr><tr><td style="font-weight:bold;vertical-align:top;">secure</td><td style="vertical-align:top;">:</td><td><div></div></td></tr><tr><td style="font-weight:bold;vertical-align:top;">version</td><td style="vertical-align:top;">:</td><td><div></div></td></tr></table></div></td></tr><tr><td style="font-weight:bold;vertical-align:top;">session_id_voto</td><td style="vertical-align:top;">:</td><td><div>127.0.0.1-8786c067-43b4-459a-8441-749730cd2042<table><tr><td style="font-weight:bold;vertical-align:top;">comment</td><td style="vertical-align:top;">:</td><td><div></div></td></tr><tr><td style="font-weight:bold;vertical-align:top;">domain</td><td style="vertical-align:top;">:</td><td><div></div></td></tr><tr><td style="font-weight:bold;vertical-align:top;">expires</td><td style="vertical-align:top;">:</td><td><div></div></td></tr><tr><td style="font-weight:bold;vertical-align:top;">httponly</td><td style="vertical-align:top;">:</td><td><div></div></td></tr><tr><td style="font-weight:bold;vertical-align:top;">max-age</td><td style="vertical-align:top;">:</td><td><div></div></td></tr><tr><td style="font-weight:bold;vertical-align:top;">path</td><td style="vertical-align:top;">:</td><td><div></div></td></tr><tr><td style="font-weight:bold;vertical-align:top;">secure</td><td style="vertical-align:top;">:</td><td><div></div></td></tr><tr><td style="font-weight:bold;vertical-align:top;">version</td><td style="vertical-align:top;">:</td><td><div></div></td></tr></table></div></td></tr><tr><td style="font-weight:bold;vertical-align:top;">session_id_welcome</td><td style="vertical-align:top;">:</td><td><div>127.0.0.1-681ee77d-187b-4fb2-9d07-b68d64a9a1e4<table><tr><td style="font-weight:bold;vertical-align:top;">comment</td><td style="vertical-align:top;">:</td><td><div></div></td></tr><tr><td style="font-weight:bold;vertical-align:top;">domain</td><td style="vertical-align:top;">:</td><td><div></div></td></tr><tr><td style="font-weight:bold;vertical-align:top;">expires</td><td style="vertical-align:top;">:</td><td><div></div></td></tr><tr><td style="font-weight:bold;vertical-align:top;">httponly</td><td style="vertical-align:top;">:</td><td><div></div></td></tr><tr><td style="font-weight:bold;vertical-align:top;">max-age</td><td style="vertical-align:top;">:</td><td><div></div></td></tr><tr><td style="font-weight:bold;vertical-align:top;">path</td><td style="vertical-align:top;">:</td><td><div></div></td></tr><tr><td style="font-weight:bold;vertical-align:top;">secure</td><td style="vertical-align:top;">:</td><td><div></div></td></tr><tr><td style="font-weight:bold;vertical-align:top;">version</td><td style="vertical-align:top;">:</td><td><div></div></td></tr></table></div></td></tr></table></div></td></tr><tr><td style="font-weight:bold;vertical-align:top;">env</td><td style="vertical-align:top;">:</td><td><div><table><tr><td style="font-weight:bold;vertical-align:top;">HTTP_ACCEPT</td><td style="vertical-align:top;">:</td><td><div>text/html,application/xhtml+xml,application/xml;q=0.9,image/webp,*/*;q=0.8</div></td></tr><tr><td style="font-weight:bold;vertical-align:top;">HTTP_ACCEPT_ENCODING</td><td style="vertical-align:top;">:</td><td><div>gzip, deflate, sdch</div></td></tr><tr><td style="font-weight:bold;vertical-align:top;">HTTP_ACCEPT_LANGUAGE</td><td style="vertical-align:top;">:</td><td><div>pt-BR,pt;q=0.8,en-US;q=0.6,en;q=0.4</div></td></tr><tr><td style="font-weight:bold;vertical-align:top;">HTTP_CONNECTION</td><td style="vertical-align:top;">:</td><td><div>keep-alive</div></td></tr><tr><td style="font-weight:bold;vertical-align:top;">HTTP_COOKIE</td><td style="vertical-align:top;">:</td><td><div>session_data_examples=&quot;a632629af9fb55f9fa76a3571908672d:sN1Elcivdjn9AEoZt6p9CH1OYrd76hTOUSbiLoxyR_yP3VUKl1SZjORiT_6q2TsxL5KRFbKY7XlUqLQ8qUQ9fdKSc6SQwqz_hs_xRWB1svIa4GO-qZqNh0xkugb0opWHtCh3BhX5xMfeMOBP2L6lUMmh1yUcuvaOH6visCdSEsDn4ByzGUN5ylEsNFejbxELSaAOwlYRb4roFr9TXARwSQ0S6u7zw0eItm2g8Z9bm7H55aH4W870LM4wPH3cOGqzJmQwzbOivkXCtr0z5-WQ_HDnS1WI3ZTDruG4FQa_MF9avDDeu6JZ8vLf9CeyaUOT&quot;; session_id_examples=True; session_id_myappzero=127.0.0.1-41ad397c-50c5-4858-9e39-6c5ae8bdc5a1; session_id_voto=127.0.0.1-8786c067-43b4-459a-8441-749730cd2042; session_id_myapp=127.0.0.1-dd8a077d-66b1-4b2d-808d-5213f9618b8a; session_id_formulario=127.0.0.1-ad3203e2-ca0b-480a-bc23-84d358ff6197; session_id_controle=127.0.0.1-8d5cd6e4-1136-46a7-8777-e2dc8b975cc3; session_id_welcome=127.0.0.1-681ee77d-187b-4fb2-9d07-b68d64a9a1e4; session_id_admin=127.0.0.1-8821195d-d852-402b-9210-e24638d99d35; session_id_anestesia=127.0.0.1-f3e79e0a-00f4-4121-a50b-cf8a4b1af40b</div></td></tr><tr><td style="font-weight:bold;vertical-align:top;">HTTP_HOST</td><td style="vertical-align:top;">:</td><td><div>127.0.0.1:8000</div></td></tr><tr><td style="font-weight:bold;vertical-align:top;">HTTP_REFERER</td><td style="vertical-align:top;">:</td><td><div>http://127.0.0.1:8000/anestesia/pagina_incluir/index</div></td></tr><tr><td style="font-weight:bold;vertical-align:top;">HTTP_USER_AGENT</td><td style="vertical-align:top;">:</td><td><div>Mozilla/5.0 (Windows NT 6.3; WOW64) AppleWebKit/537.36 (KHTML, like Gecko) Chrome/39.0.2171.95 Safari/537.36</div></td></tr><tr><td style="font-weight:bold;vertical-align:top;">PATH_INFO</td><td style="vertical-align:top;">:</td><td><div>/anestesia/pagina_incluir/index</div></td></tr><tr><td style="font-weight:bold;vertical-align:top;">QUERY_STRING</td><td style="vertical-align:top;">:</td><td><div>nr_registro=4&amp;nome=Nail+Mohamed+Saber+Abdo+Bekhit&amp;data=15%2F11%2F1971&amp;ficha_nr=4&amp;enfermaria=4&amp;leito=4&amp;idade=4&amp;asa=4&amp;clinica=4&amp;so=4&amp;dados_cadastrais_e=sim&amp;dados_cadastrais_sexo=M&amp;altura=4&amp;peso=4&amp;temperatura=4&amp;pulso=4&amp;respiracao=4&amp;pa=4&amp;diagnostico=4&amp;cirurgia=4&amp;tabagismo=sim&amp;asma=nao&amp;tosse=sim&amp;dpoc=nao&amp;bk_insuficiencia=sim&amp;derrame_pleural=nao&amp;circunferencia_toraxica=sim&amp;has=sim&amp;icc=nao&amp;anglina=sim&amp;iam=nao&amp;valvulopalla=sim&amp;marcapasso=nao&amp;arritmias=sim&amp;insuf_venosa=nao&amp;diabetes=sim&amp;hipertireoidismo=nao&amp;endocrinopalias=sim&amp;cirrose=nao&amp;hepatite_a=sim&amp;hepatite_b=nao&amp;hepatite_c=sim&amp;elilismo=nao&amp;hiv=sim&amp;infeccoes_oportunistas=nao&amp;insuf_renal=sim&amp;hemodialise_peritoneal=nao&amp;disturbios_hemorragicos=sim&amp;avc_previo=nao&amp;doencas_psiquiatrica=sim&amp;doencas_neuromuscular=nao&amp;doencas_reumatica=sim&amp;alteracao_neurologica=nao&amp;hemotransfusao_previa=sim&amp;txtarea_obs_gerais=4&amp;txt_med_em_uso=4&amp;txt_alergias=4&amp;txt_cir_previas=4&amp;abertura_boca=sim&amp;dentes_falhos=nao&amp;protese=sim&amp;macroglossia=nao&amp;distancia_esterno_mento=4&amp;pescoco_curto_longo=4&amp;pescoco_mobilidade_cervical=4&amp;massa_cervical=nao&amp;desvio_traqueia=sim&amp;distancia_mento_hiloide=4&amp;circunferencia_cervical=4&amp;chk_atencao_dificuldade_intubacao=sim&amp;chk_atencao_via_aerea_dificil=sim&amp;chk_atencao_estomago_cheio=sim&amp;hb=4&amp;ht=4&amp;hm=4&amp;plaquetas=4&amp;glicose=4&amp;u=4&amp;cr=4&amp;na%2B=4&amp;k%2B=4&amp;txt_duracao_procedimento=4&amp;txt_duracao_cirurgia=4&amp;cardioscopio=sim&amp;ox_digital=nao&amp;pni=sim&amp;painv=nao&amp;capnografo=sim&amp;an_gases=nao&amp;outros_monitorizacao=4&amp;tec_geral=sim&amp;plexo=nao&amp;bloqueio_neuroeixo=sim&amp;combinada=nao&amp;sedacao=sim&amp;sub_mascara=sim&amp;canula_naso=sim&amp;canula_orofaringea=sim&amp;mascara_laringea=sim&amp;nr_mascara_laringea=4&amp;intubacao_oro_traqueal=sim&amp;diametro_tubo=4&amp;tipo_naso=sim&amp;tipo_aramado=sim&amp;dupla_luz=sim&amp;balao=sim&amp;laringoscopia=sim&amp;broncofibroscopia=sim&amp;estilete_luminoso=sim&amp;videolaringoscopia=sim&amp;cirurgia=4&amp;anestesia=4&amp;cirurgiap=4&amp;_formname=default</div></td></tr><tr><td style="font-weight:bold;vertical-align:top;">REMOTE_ADDR</td><td style="vertical-align:top;">:</td><td><div>127.0.0.1</div></td></tr><tr><td style="font-weight:bold;vertical-align:top;">REMOTE_PORT</td><td style="vertical-align:top;">:</td><td><div>50169</div></td></tr><tr><td style="font-weight:bold;vertical-align:top;">REQUEST_METHOD</td><td style="vertical-align:top;">:</td><td><div>GET</div></td></tr><tr><td style="font-weight:bold;vertical-align:top;">SCRIPT_NAME</td><td style="vertical-align:top;">:</td><td><div></div></td></tr><tr><td style="font-weight:bold;vertical-align:top;">SERVER_NAME</td><td style="vertical-align:top;">:</td><td><div>MOHAMED-DTIC</div></td></tr><tr><td style="font-weight:bold;vertical-align:top;">SERVER_PORT</td><td style="vertical-align:top;">:</td><td><div>8000</div></td></tr><tr><td style="font-weight:bold;vertical-align:top;">SERVER_PROTOCOL</td><td style="vertical-align:top;">:</td><td><div>HTTP/1.1</div></td></tr><tr><td style="font-weight:bold;vertical-align:top;">SERVER_SOFTWARE</td><td style="vertical-align:top;">:</td><td><div>Rocket 1.2.6</div></td></tr><tr><td style="font-weight:bold;vertical-align:top;">app_folders</td><td style="vertical-align:top;">:</td><td><div>set([&#x27;D:\\\\Desenvolvimento\\\\web2py\\\\applications\\\\admin\\\\&#x27;, &#x27;D:\\\\Desenvolvimento\\\\web2py\\\\applications\\\\anestesia\\\\&#x27;, &#x27;D:\\\\Desenvolvimento\\\\web2py\\\\applications\\\\welcome\\\\&#x27;])</div></td></tr><tr><td style="font-weight:bold;vertical-align:top;">applications_parent</td><td style="vertical-align:top;">:</td><td><div>D:\\Desenvolvimento\\web2py</div></td></tr><tr><td style="font-weight:bold;vertical-align:top;">cmd_args</td><td style="vertical-align:top;">:</td><td><div><table></table></div></td></tr><tr><td style="font-weight:bold;vertical-align:top;">cmd_options</td><td style="vertical-align:top;">:</td><td><div>&lt;Values at 0x30ab698: {&#x27;verbose&#x27;: False, &#x27;ip&#x27;: &#x27;127.0.0.1&#x27;, &#x27;debuglevel&#x27;: 30, &#x27;with_scheduler&#x27;: False, &#x27;ips&#x27;: [&#x27;192.168.71.1&#x27;, &#x27;fe80::4023:9900:3196:7ccb%5&#x27;, &#x27;10.129.18.33&#x27;, &#x27;192.168.16.1&#x27;, &#x27;fe80::6dc3:bcf7:daee:374c%7&#x27;, &#x27;fe80::4932:49bd:49c6:6ebe%3&#x27;], &#x27;shutdown_timeout&#x27;: 5, &#x27;taskbar&#x27;: False, &#x27;with_coverage&#x27;: False, &#x27;scheduler_groups&#x27;: None, &#x27;port&#x27;: 8000, &#x27;maxthreads&#x27;: None, &#x27;softcron&#x27;: False, &#x27;server_name&#x27;: &#x27;MOHAMED-DTIC&#x27;, &#x27;bpython&#x27;: False, &#x27;nogui&#x27;: False, &#x27;pid_filename&#x27;: &#x27;httpserver.pid&#x27;, &#x27;extcron&#x27;: False, &#x27;runcron&#x27;: False, &#x27;run_system_tests&#x27;: False, &#x27;test&#x27;: None, &#x27;folder&#x27;: &#x27;D:\\\\Desenvolvimento\\\\web2py&#x27;, &#x27;config&#x27;: &#x27;&#x27;, &#x27;minthreads&#x27;: None, &#x27;shell&#x27;: None, &#x27;run&#x27;: &#x27;&#x27;, &#x27;log_filename&#x27;: &#x27;httpserver.log&#x27;, &#x27;profiler_dir&#x27;: None, &#x27;args&#x27;: [&#x27;&#x27;], &#x27;socket_timeout&#x27;: 5, &#x27;ssl_ca_certificate&#x27;: None, &#x27;scheduler&#x27;: None, &#x27;interfaces&#x27;: None, &#x27;ssl_private_key&#x27;: &#x27;&#x27;, &#x27;gae&#x27;: None, &#x27;password&#x27;: &#x27;&lt;ask&gt;&#x27;, &#x27;request_queue_size&#x27;: 5, &#x27;ssl_certificate&#x27;: &#x27;&#x27;, &#x27;cronjob&#x27;: False, &#x27;numthreads&#x27;: None, &#x27;quiet&#x27;: False, &#x27;import_models&#x27;: False, &#x27;timeout&#x27;: 10, &#x27;plain&#x27;: False, &#x27;nobanner&#x27;: False}&gt;</div></td></tr><tr><td style="font-weight:bold;vertical-align:top;">db_sessions</td><td style="vertical-align:top;">:</td><td><div>set([])</div></td></tr><tr><td style="font-weight:bold;vertical-align:top;">debugging</td><td style="vertical-align:top;">:</td><td><div>False</div></td></tr><tr><td style="font-weight:bold;vertical-align:top;">gluon_parent</td><td style="vertical-align:top;">:</td><td><div>D:\\Desenvolvimento\\web2py</div></td></tr><tr><td style="font-weight:bold;vertical-align:top;">http_accept</td><td style="vertical-align:top;">:</td><td><div>text/html,application/xhtml+xml,application/xml;q=0.9,image/webp,*/*;q=0.8</div></td></tr><tr><td style="font-weight:bold;vertical-align:top;">http_accept_encoding</td><td style="vertical-align:top;">:</td><td><div>gzip, deflate, sdch</div></td></tr><tr><td style="font-weight:bold;vertical-align:top;">http_accept_language</td><td style="vertical-align:top;">:</td><td><div>pt-BR,pt;q=0.8,en-US;q=0.6,en;q=0.4</div></td></tr><tr><td style="font-weight:bold;vertical-align:top;">http_connection</td><td style="vertical-align:top;">:</td><td><div>keep-alive</div></td></tr><tr><td style="font-weight:bold;vertical-align:top;">http_cookie</td><td style="vertical-align:top;">:</td><td><div>session_data_examples=&quot;a632629af9fb55f9fa76a3571908672d:sN1Elcivdjn9AEoZt6p9CH1OYrd76hTOUSbiLoxyR_yP3VUKl1SZjORiT_6q2TsxL5KRFbKY7XlUqLQ8qUQ9fdKSc6SQwqz_hs_xRWB1svIa4GO-qZqNh0xkugb0opWHtCh3BhX5xMfeMOBP2L6lUMmh1yUcuvaOH6visCdSEsDn4ByzGUN5ylEsNFejbxELSaAOwlYRb4roFr9TXARwSQ0S6u7zw0eItm2g8Z9bm7H55aH4W870LM4wPH3cOGqzJmQwzbOivkXCtr0z5-WQ_HDnS1WI3ZTDruG4FQa_MF9avDDeu6JZ8vLf9CeyaUOT&quot;; session_id_examples=True; session_id_myappzero=127.0.0.1-41ad397c-50c5-4858-9e39-6c5ae8bdc5a1; session_id_voto=127.0.0.1-8786c067-43b4-459a-8441-749730cd2042; session_id_myapp=127.0.0.1-dd8a077d-66b1-4b2d-808d-5213f9618b8a; session_id_formulario=127.0.0.1-ad3203e2-ca0b-480a-bc23-84d358ff6197; session_id_controle=127.0.0.1-8d5cd6e4-1136-46a7-8777-e2dc8b975cc3; session_id_welcome=127.0.0.1-681ee77d-187b-4fb2-9d07-b68d64a9a1e4; session_id_admin=127.0.0.1-8821195d-d852-402b-9210-e24638d99d35; session_id_anestesia=127.0.0.1-f3e79e0a-00f4-4121-a50b-cf8a4b1af40b</div></td></tr><tr><td style="font-weight:bold;vertical-align:top;">http_host</td><td style="vertical-align:top;">:</td><td><div>127.0.0.1:8000</div></td></tr><tr><td style="font-weight:bold;vertical-align:top;">http_referer</td><td style="vertical-align:top;">:</td><td><div>http://127.0.0.1:8000/anestesia/pagina_incluir/index</div></td></tr><tr><td style="font-weight:bold;vertical-align:top;">http_user_agent</td><td style="vertical-align:top;">:</td><td><div>Mozilla/5.0 (Windows NT 6.3; WOW64) AppleWebKit/537.36 (KHTML, like Gecko) Chrome/39.0.2171.95 Safari/537.36</div></td></tr><tr><td style="font-weight:bold;vertical-align:top;">is_jython</td><td style="vertical-align:top;">:</td><td><div>False</div></td></tr><tr><td style="font-weight:bold;vertical-align:top;">is_pypy</td><td style="vertical-align:top;">:</td><td><div>False</div></td></tr><tr><td style="font-weight:bold;vertical-align:top;">is_source</td><td style="vertical-align:top;">:</td><td><div>True</div></td></tr><tr><td style="font-weight:bold;vertical-align:top;">local_hosts</td><td style="vertical-align:top;">:</td><td><div><table><tr><td><div>192.168.71.1</div></td></tr><tr><td><div>fe80::4023:9900:3196:7ccb%5</div></td></tr><tr><td><div>fe80::6dc3:bcf7:daee:374c%7</div></td></tr><tr><td><div>::ffff:127.0.0.1</div></td></tr><tr><td><div>MOHAMED-DTIC</div></td></tr><tr><td><div>10.129.18.33</div></td></tr><tr><td><div>192.168.16.1</div></td></tr><tr><td><div>::1</div></td></tr><tr><td><div>MOHAMED-DTIC.unirio.br</div></td></tr><tr><td><div>127.0.0.1</div></td></tr><tr><td><div>fe80::4932:49bd:49c6:6ebe%3</div></td></tr></table></div></td></tr><tr><td style="font-weight:bold;vertical-align:top;">path_info</td><td style="vertical-align:top;">:</td><td><div>/anestesia/pagina_incluir/index</div></td></tr><tr><td style="font-weight:bold;vertical-align:top;">query_string</td><td style="vertical-align:top;">:</td><td><div>nr_registro=4&amp;nome=Nail+Mohamed+Saber+Abdo+Bekhit&amp;data=15%2F11%2F1971&amp;ficha_nr=4&amp;enfermaria=4&amp;leito=4&amp;idade=4&amp;asa=4&amp;clinica=4&amp;so=4&amp;dados_cadastrais_e=sim&amp;dados_cadastrais_sexo=M&amp;altura=4&amp;peso=4&amp;temperatura=4&amp;pulso=4&amp;respiracao=4&amp;pa=4&amp;diagnostico=4&amp;cirurgia=4&amp;tabagismo=sim&amp;asma=nao&amp;tosse=sim&amp;dpoc=nao&amp;bk_insuficiencia=sim&amp;derrame_pleural=nao&amp;circunferencia_toraxica=sim&amp;has=sim&amp;icc=nao&amp;anglina=sim&amp;iam=nao&amp;valvulopalla=sim&amp;marcapasso=nao&amp;arritmias=sim&amp;insuf_venosa=nao&amp;diabetes=sim&amp;hipertireoidismo=nao&amp;endocrinopalias=sim&amp;cirrose=nao&amp;hepatite_a=sim&amp;hepatite_b=nao&amp;hepatite_c=sim&amp;elilismo=nao&amp;hiv=sim&amp;infeccoes_oportunistas=nao&amp;insuf_renal=sim&amp;hemodialise_peritoneal=nao&amp;disturbios_hemorragicos=sim&amp;avc_previo=nao&amp;doencas_psiquiatrica=sim&amp;doencas_neuromuscular=nao&amp;doencas_reumatica=sim&amp;alteracao_neurologica=nao&amp;hemotransfusao_previa=sim&amp;txtarea_obs_gerais=4&amp;txt_med_em_uso=4&amp;txt_alergias=4&amp;txt_cir_previas=4&amp;abertura_boca=sim&amp;dentes_falhos=nao&amp;protese=sim&amp;macroglossia=nao&amp;distancia_esterno_mento=4&amp;pescoco_curto_longo=4&amp;pescoco_mobilidade_cervical=4&amp;massa_cervical=nao&amp;desvio_traqueia=sim&amp;distancia_mento_hiloide=4&amp;circunferencia_cervical=4&amp;chk_atencao_dificuldade_intubacao=sim&amp;chk_atencao_via_aerea_dificil=sim&amp;chk_atencao_estomago_cheio=sim&amp;hb=4&amp;ht=4&amp;hm=4&amp;plaquetas=4&amp;glicose=4&amp;u=4&amp;cr=4&amp;na%2B=4&amp;k%2B=4&amp;txt_duracao_procedimento=4&amp;txt_duracao_cirurgia=4&amp;cardioscopio=sim&amp;ox_digital=nao&amp;pni=sim&amp;painv=nao&amp;capnografo=sim&amp;an_gases=nao&amp;outros_monitorizacao=4&amp;tec_geral=sim&amp;plexo=nao&amp;bloqueio_neuroeixo=sim&amp;combinada=nao&amp;sedacao=sim&amp;sub_mascara=sim&amp;canula_naso=sim&amp;canula_orofaringea=sim&amp;mascara_laringea=sim&amp;nr_mascara_laringea=4&amp;intubacao_oro_traqueal=sim&amp;diametro_tubo=4&amp;tipo_naso=sim&amp;tipo_aramado=sim&amp;dupla_luz=sim&amp;balao=sim&amp;laringoscopia=sim&amp;broncofibroscopia=sim&amp;estilete_luminoso=sim&amp;videolaringoscopia=sim&amp;cirurgia=4&amp;anestesia=4&amp;cirurgiap=4&amp;_formname=default</div></td></tr><tr><td style="font-weight:bold;vertical-align:top;">remote_addr</td><td style="vertical-align:top;">:</td><td><div>127.0.0.1</div></td></tr><tr><td style="font-weight:bold;vertical-align:top;">remote_port</td><td style="vertical-align:top;">:</td><td><div>50169</div></td></tr><tr><td style="font-weight:bold;vertical-align:top;">request_method</td><td style="vertical-align:top;">:</td><td><div>GET</div></td></tr><tr><td style="font-weight:bold;vertical-align:top;">request_uri</td><td style="vertical-align:top;">:</td><td><div>/anestesia/pagina_incluir/index?nr_registro=4&amp;nome=Nail+Mohamed+Saber+Abdo+Bekhit&amp;data=15%2F11%2F1971&amp;ficha_nr=4&amp;enfermaria=4&amp;leito=4&amp;idade=4&amp;asa=4&amp;clinica=4&amp;so=4&amp;dados_cadastrais_e=sim&amp;dados_cadastrais_sexo=M&amp;altura=4&amp;peso=4&amp;temperatura=4&amp;pulso=4&amp;respiracao=4&amp;pa=4&amp;diagnostico=4&amp;cirurgia=4&amp;tabagismo=sim&amp;asma=nao&amp;tosse=sim&amp;dpoc=nao&amp;bk_insuficiencia=sim&amp;derrame_pleural=nao&amp;circunferencia_toraxica=sim&amp;has=sim&amp;icc=nao&amp;anglina=sim&amp;iam=nao&amp;valvulopalla=sim&amp;marcapasso=nao&amp;arritmias=sim&amp;insuf_venosa=nao&amp;diabetes=sim&amp;hipertireoidismo=nao&amp;endocrinopalias=sim&amp;cirrose=nao&amp;hepatite_a=sim&amp;hepatite_b=nao&amp;hepatite_c=sim&amp;elilismo=nao&amp;hiv=sim&amp;infeccoes_oportunistas=nao&amp;insuf_renal=sim&amp;hemodialise_peritoneal=nao&amp;disturbios_hemorragicos=sim&amp;avc_previo=nao&amp;doencas_psiquiatrica=sim&amp;doencas_neuromuscular=nao&amp;doencas_reumatica=sim&amp;alteracao_neurologica=nao&amp;hemotransfusao_previa=sim&amp;txtarea_obs_gerais=4&amp;txt_med_em_uso=4&amp;txt_alergias=4&amp;txt_cir_previas=4&amp;abertura_boca=sim&amp;dentes_falhos=nao&amp;protese=sim&amp;macroglossia=nao&amp;distancia_esterno_mento=4&amp;pescoco_curto_longo=4&amp;pescoco_mobilidade_cervical=4&amp;massa_cervical=nao&amp;desvio_traqueia=sim&amp;distancia_mento_hiloide=4&amp;circunferencia_cervical=4&amp;chk_atencao_dificuldade_intubacao=sim&amp;chk_atencao_via_aerea_dificil=sim&amp;chk_atencao_estomago_cheio=sim&amp;hb=4&amp;ht=4&amp;hm=4&amp;plaquetas=4&amp;glicose=4&amp;u=4&amp;cr=4&amp;na%2B=4&amp;k%2B=4&amp;txt_duracao_procedimento=4&amp;txt_duracao_cirurgia=4&amp;cardioscopio=sim&amp;ox_digital=nao&amp;pni=sim&amp;painv=nao&amp;capnografo=sim&amp;an_gases=nao&amp;outros_monitorizacao=4&amp;tec_geral=sim&amp;plexo=nao&amp;bloqueio_neuroeixo=sim&amp;combinada=nao&amp;sedacao=sim&amp;sub_mascara=sim&amp;canula_naso=sim&amp;canula_orofaringea=sim&amp;mascara_laringea=sim&amp;nr_mascara_laringea=4&amp;intubacao_oro_traqueal=sim&amp;diametro_tubo=4&amp;tipo_naso=sim&amp;tipo_aramado=sim&amp;dupla_luz=sim&amp;balao=sim&amp;laringoscopia=sim&amp;broncofibroscopia=sim&amp;estilete_luminoso=sim&amp;videolaringoscopia=sim&amp;cirurgia=4&amp;anestesia=4&amp;cirurgiap=4&amp;_formname=default</div></td></tr><tr><td style="font-weight:bold;vertical-align:top;">script_name</td><td style="vertical-align:top;">:</td><td><div></div></td></tr><tr><td style="font-weight:bold;vertical-align:top;">server_name</td><td style="vertical-align:top;">:</td><td><div>MOHAMED-DTIC</div></td></tr><tr><td style="font-weight:bold;vertical-align:top;">server_port</td><td style="vertical-align:top;">:</td><td><div>8000</div></td></tr><tr><td style="font-weight:bold;vertical-align:top;">server_protocol</td><td style="vertical-align:top;">:</td><td><div>HTTP/1.1</div></td></tr><tr><td style="font-weight:bold;vertical-align:top;">server_software</td><td style="vertical-align:top;">:</td><td><div>Rocket 1.2.6</div></td></tr><tr><td style="font-weight:bold;vertical-align:top;">web2py_path</td><td style="vertical-align:top;">:</td><td><div>D:\\Desenvolvimento\\web2py</div></td></tr><tr><td style="font-weight:bold;vertical-align:top;">web2py_version</td><td style="vertical-align:top;">:</td><td><div>2.9.11-stable+timestamp.2014.09.15.23.35.11</div></td></tr><tr><td style="font-weight:bold;vertical-align:top;">wsgi.errors</td><td style="vertical-align:top;">:</td><td><div>&lt;open file &#x27;&lt;stderr&gt;&#x27;, mode &#x27;w&#x27; at 0x01DC50D0&gt;</div></td></tr><tr><td style="font-weight:bold;vertical-align:top;">wsgi.file_wrapper</td><td style="vertical-align:top;">:</td><td><div>&lt;class wsgiref.util.FileWrapper at 0x030591F0&gt;</div></td></tr><tr><td style="font-weight:bold;vertical-align:top;">wsgi.input</td><td style="vertical-align:top;">:</td><td><div>&lt;socket._fileobject object at 0x08E85430&gt;</div></td></tr><tr><td style="font-weight:bold;vertical-align:top;">wsgi.multiprocess</td><td style="vertical-align:top;">:</td><td><div>False</div></td></tr><tr><td style="font-weight:bold;vertical-align:top;">wsgi.multithread</td><td style="vertical-align:top;">:</td><td><div>True</div></td></tr><tr><td style="font-weight:bold;vertical-align:top;">wsgi.run_once</td><td style="vertical-align:top;">:</td><td><div>False</div></td></tr><tr><td style="font-weight:bold;vertical-align:top;">wsgi.url_scheme</td><td style="vertical-align:top;">:</td><td><div>http</div></td></tr><tr><td style="font-weight:bold;vertical-align:top;">wsgi.version</td><td style="vertical-align:top;">:</td><td><div><table><tr><td><div>1</div></td></tr><tr><td><div>0</div></td></tr></table></div></td></tr><tr><td style="font-weight:bold;vertical-align:top;">wsgi_errors</td><td style="vertical-align:top;">:</td><td><div>&lt;open file &#x27;&lt;stderr&gt;&#x27;, mode &#x27;w&#x27; at 0x01DC50D0&gt;</div></td></tr><tr><td style="font-weight:bold;vertical-align:top;">wsgi_file_wrapper</td><td style="vertical-align:top;">:</td><td><div>&lt;class wsgiref.util.FileWrapper at 0x030591F0&gt;</div></td></tr><tr><td style="font-weight:bold;vertical-align:top;">wsgi_input</td><td style="vertical-align:top;">:</td><td><div>&lt;socket._fileobject object at 0x08E85430&gt;</div></td></tr><tr><td style="font-weight:bold;vertical-align:top;">wsgi_multiprocess</td><td style="vertical-align:top;">:</td><td><div>False</div></td></tr><tr><td style="font-weight:bold;vertical-align:top;">wsgi_multithread</td><td style="vertical-align:top;">:</td><td><div>True</div></td></tr><tr><td style="font-weight:bold;vertical-align:top;">wsgi_run_once</td><td style="vertical-align:top;">:</td><td><div>False</div></td></tr><tr><td style="font-weight:bold;vertical-align:top;">wsgi_url_scheme</td><td style="vertical-align:top;">:</td><td><div>http</div></td></tr><tr><td style="font-weight:bold;vertical-align:top;">wsgi_version</td><td style="vertical-align:top;">:</td><td><div><table><tr><td><div>1</div></td></tr><tr><td><div>0</div></td></tr></table></div></td></tr></table></div></td></tr><tr><td style="font-weight:bold;vertical-align:top;">extension</td><td style="vertical-align:top;">:</td><td><div>html</div></td></tr><tr><td style="font-weight:bold;vertical-align:top;">folder</td><td style="vertical-align:top;">:</td><td><div>D:\\Desenvolvimento\\web2py\\applications\\anestesia\\</div></td></tr><tr><td style="font-weight:bold;vertical-align:top;">function</td><td style="vertical-align:top;">:</td><td><div>index</div></td></tr><tr><td style="font-weight:bold;vertical-align:top;">global_settings</td><td style="vertical-align:top;">:</td><td><div><table><tr><td style="font-weight:bold;vertical-align:top;">app_folders</td><td style="vertical-align:top;">:</td><td><div>set([&#x27;D:\\\\Desenvolvimento\\\\web2py\\\\applications\\\\admin\\\\&#x27;, &#x27;D:\\\\Desenvolvimento\\\\web2py\\\\applications\\\\anestesia\\\\&#x27;, &#x27;D:\\\\Desenvolvimento\\\\web2py\\\\applications\\\\welcome\\\\&#x27;])</div></td></tr><tr><td style="font-weight:bold;vertical-align:top;">applications_parent</td><td style="vertical-align:top;">:</td><td><div>D:\\Desenvolvimento\\web2py</div></td></tr><tr><td style="font-weight:bold;vertical-align:top;">cmd_args</td><td style="vertical-align:top;">:</td><td><div><table></table></div></td></tr><tr><td style="font-weight:bold;vertical-align:top;">cmd_options</td><td style="vertical-align:top;">:</td><td><div>&lt;Values at 0x30ab698: {&#x27;verbose&#x27;: False, &#x27;ip&#x27;: &#x27;127.0.0.1&#x27;, &#x27;debuglevel&#x27;: 30, &#x27;with_scheduler&#x27;: False, &#x27;ips&#x27;: [&#x27;192.168.71.1&#x27;, &#x27;fe80::4023:9900:3196:7ccb%5&#x27;, &#x27;10.129.18.33&#x27;, &#x27;192.168.16.1&#x27;, &#x27;fe80::6dc3:bcf7:daee:374c%7&#x27;, &#x27;fe80::4932:49bd:49c6:6ebe%3&#x27;], &#x27;shutdown_timeout&#x27;: 5, &#x27;taskbar&#x27;: False, &#x27;with_coverage&#x27;: False, &#x27;scheduler_groups&#x27;: None, &#x27;port&#x27;: 8000, &#x27;maxthreads&#x27;: None, &#x27;softcron&#x27;: False, &#x27;server_name&#x27;: &#x27;MOHAMED-DTIC&#x27;, &#x27;bpython&#x27;: False, &#x27;nogui&#x27;: False, &#x27;pid_filename&#x27;: &#x27;httpserver.pid&#x27;, &#x27;extcron&#x27;: False, &#x27;runcron&#x27;: False, &#x27;run_system_tests&#x27;: False, &#x27;test&#x27;: None, &#x27;folder&#x27;: &#x27;D:\\\\Desenvolvimento\\\\web2py&#x27;, &#x27;config&#x27;: &#x27;&#x27;, &#x27;minthreads&#x27;: None, &#x27;shell&#x27;: None, &#x27;run&#x27;: &#x27;&#x27;, &#x27;log_filename&#x27;: &#x27;httpserver.log&#x27;, &#x27;profiler_dir&#x27;: None, &#x27;args&#x27;: [&#x27;&#x27;], &#x27;socket_timeout&#x27;: 5, &#x27;ssl_ca_certificate&#x27;: None, &#x27;scheduler&#x27;: None, &#x27;interfaces&#x27;: None, &#x27;ssl_private_key&#x27;: &#x27;&#x27;, &#x27;gae&#x27;: None, &#x27;password&#x27;: &#x27;&lt;ask&gt;&#x27;, &#x27;request_queue_size&#x27;: 5, &#x27;ssl_certificate&#x27;: &#x27;&#x27;, &#x27;cronjob&#x27;: False, &#x27;numthreads&#x27;: None, &#x27;quiet&#x27;: False, &#x27;import_models&#x27;: False, &#x27;timeout&#x27;: 10, &#x27;plain&#x27;: False, &#x27;nobanner&#x27;: False}&gt;</div></td></tr><tr><td style="font-weight:bold;vertical-align:top;">db_sessions</td><td style="vertical-align:top;">:</td><td><div>set([])</div></td></tr><tr><td style="font-weight:bold;vertical-align:top;">debugging</td><td style="vertical-align:top;">:</td><td><div>False</div></td></tr><tr><td style="font-weight:bold;vertical-align:top;">gluon_parent</td><td style="vertical-align:top;">:</td><td><div>D:\\Desenvolvimento\\web2py</div></td></tr><tr><td style="font-weight:bold;vertical-align:top;">is_jython</td><td style="vertical-align:top;">:</td><td><div>False</div></td></tr><tr><td style="font-weight:bold;vertical-align:top;">is_pypy</td><td style="vertical-align:top;">:</td><td><div>False</div></td></tr><tr><td style="font-weight:bold;vertical-align:top;">is_source</td><td style="vertical-align:top;">:</td><td><div>True</div></td></tr><tr><td style="font-weight:bold;vertical-align:top;">local_hosts</td><td style="vertical-align:top;">:</td><td><div><table><tr><td><div>192.168.71.1</div></td></tr><tr><td><div>fe80::4023:9900:3196:7ccb%5</div></td></tr><tr><td><div>fe80::6dc3:bcf7:daee:374c%7</div></td></tr><tr><td><div>::ffff:127.0.0.1</div></td></tr><tr><td><div>MOHAMED-DTIC</div></td></tr><tr><td><div>10.129.18.33</div></td></tr><tr><td><div>192.168.16.1</div></td></tr><tr><td><div>::1</div></td></tr><tr><td><div>MOHAMED-DTIC.unirio.br</div></td></tr><tr><td><div>127.0.0.1</div></td></tr><tr><td><div>fe80::4932:49bd:49c6:6ebe%3</div></td></tr></table></div></td></tr><tr><td style="font-weight:bold;vertical-align:top;">web2py_version</td><td style="vertical-align:top;">:</td><td><div>2.9.11-stable+timestamp.2014.09.15.23.35.11</div></td></tr></table></div></td></tr><tr><td style="font-weight:bold;vertical-align:top;">is_https</td><td style="vertical-align:top;">:</td><td><div>False</div></td></tr><tr><td style="font-weight:bold;vertical-align:top;">is_local</td><td style="vertical-align:top;">:</td><td><div>True</div></td></tr><tr><td style="font-weight:bold;vertical-align:top;">is_restful</td><td style="vertical-align:top;">:</td><td><div>False</div></td></tr><tr><td style="font-weight:bold;vertical-align:top;">is_sheduler</td><td style="vertical-align:top;">:</td><td><div>None</div></td></tr><tr><td style="font-weight:bold;vertical-align:top;">is_shell</td><td style="vertical-align:top;">:</td><td><div>None</div></td></tr><tr><td style="font-weight:bold;vertical-align:top;">now</td><td style="vertical-align:top;">:</td><td><div>datetime.datetime(2014, 12, 16, 10, 37, 21, 819000)</div></td></tr><tr><td style="font-weight:bold;vertical-align:top;">raw_args</td><td style="vertical-align:top;">:</td><td><div></div></td></tr><tr><td style="font-weight:bold;vertical-align:top;">raw_extension</td><td style="vertical-align:top;">:</td><td><div>None</div></td></tr><tr><td style="font-weight:bold;vertical-align:top;">url</td><td style="vertical-align:top;">:</td><td><div>/anestesia/pagina_incluir/index</div></td></tr><tr><td style="font-weight:bold;vertical-align:top;">utcnow</td><td style="vertical-align:top;">:</td><td><div>datetime.datetime(2014, 12, 16, 12, 37, 21, 820000)</div></td></tr><tr><td style="font-weight:bold;vertical-align:top;">uuid</td><td style="vertical-align:top;">:</td><td><div>anestesia/127.0.0.1.2014-12-16.10-37-21.b1fa906c-d789-4bb7-b9af-0e8887136b5d</div></td></tr><tr><td style="font-weight:bold;vertical-align:top;">wsgi</td><td style="vertical-align:top;">:</td><td><div>&lt;gluon.main.LazyWSGI object at 0x095904F0&gt;</div></td></tr></table></div>'
tRp62
sS'frames'
p63
(lp64
(dp65
S'file'
p66
S'D:\\Desenvolvimento\\web2py\\gluon\\restricted.py'
p67
sS'dump'
p68
(dp69
S'environment'
p70
S"{'A': <class 'gluon.html.A'>, 'ANY_OF': <class 'gluon.validators.ANY_OF'>, 'ASSIGNJS': <function ASSIGNJS>, 'Auth': <class 'gluon.tools.Auth'>, 'B': <class 'gluon.html.B'>, 'BEAUTIFY': <class 'gluon.html.BEAUTIFY'>, 'BODY': <class 'gluon.html.BODY'>, 'BR': <class 'gluon.html.BR'>, 'BUTTON': <class 'gluon.html.BUTTON'>, 'CAT': <class 'gluon.html.CAT'>, ...}"
p71
sS'ccode'
p72
S'<code object <module> at 09598578, file "D:\\Dese...anestesia\\controllers/pagina_incluir.py", line 1>'
p73
ssS'lnum'
p74
I224
sS'lines'
p75
(dp76
I224
S'        exec ccode in environment'
p77
sI225
S'    except HTTP:'
p78
sI226
S'        raise'
p79
sI227
S'    except RestrictedError:'
p80
sI228
S'        # do not encapsulate (obfuscate) the original RestrictedError'
p81
sI219
S'    try:'
p82
sI220
S'        if isinstance(code, types.CodeType):'
p83
sI221
S'            ccode = code'
p84
sI222
S'        else:'
p85
sI223
S'            ccode = compile2(code, layer)'
p86
ssS'call'
p87
S'(code="__author__ = \'Mohamed\'\\n\\n\\ndef gerar_form():\\n    c...te=teste)\\nresponse._vars=response._caller(index)\\n", environment={\'A\': <class \'gluon.html.A\'>, \'ANY_OF\': <class \'gluon.validators.ANY_OF\'>, \'ASSIGNJS\': <function ASSIGNJS>, \'Auth\': <class \'gluon.tools.Auth\'>, \'B\': <class \'gluon.html.B\'>, \'BEAUTIFY\': <class \'gluon.html.BEAUTIFY\'>, \'BODY\': <class \'gluon.html.BODY\'>, \'BR\': <class \'gluon.html.BR\'>, \'BUTTON\': <class \'gluon.html.BUTTON\'>, \'CAT\': <class \'gluon.html.CAT\'>, ...}, layer=r\'D:\\Desenvolvimento\\web2py\\applications\\anestesia\\controllers/pagina_incluir.py\')'
p88
sS'func'
p89
S'restricted'
p90
sa(dp91
g66
S'D:\\Desenvolvimento\\web2py\\applications\\anestesia\\controllers\\pagina_incluir.py'
p92
sg68
(dp93
sg74
I1218
sg75
(dp94
I1216
S''
sI1217
S'    return dict(forulario=form_incluir, teste=teste)'
p95
sI1208
S'                                   balao=request.vars.balao,'
p96
sI1209
S'                                   laringoscopia=request.vars.laringoscopia,'
p97
sI1210
S'                                   broncofibroscopia=request.vars.broncofibroscopia,'
p98
sI1211
S'                                   estilete_luminoso=request.vars.estilete_luminoso,'
p99
sI1212
S'                                   videolaringoscopia=request.vars.videolaringoscopia,'
p100
sI1213
S'                                   cirurgia=request.vars.cirurgia,'
p101
sI1214
S'                                   anestesia=request.vars.anestesia,'
p102
sI1215
S'                                   cirurgiao=request.vars.cirurgiao)'
p103
ssg87
S'()'
p104
sg89
S'<module>'
p105
sa(dp106
g66
S'D:\\Desenvolvimento\\web2py\\gluon\\globals.py'
p107
sg68
(dp108
S'self'
p109
S'undefined'
p110
sS'f'
S'<function index>'
p111
ssg74
I392
sg75
(dp112
I387
S"        self.flash = ''            # used by the default view layout"
p113
sI388
S'        self.meta = Storage()      # used by web2py_ajax.html'
p114
sI389
S'        self.menu = []             # used by the default view layout'
p115
sI390
S'        self.files = []            # used by web2py_ajax.html'
p116
sI391
S'        self._vars = None'
p117
sI392
S'        self._caller = lambda f: f()'
p118
sI393
S'        self._view_environment = None'
p119
sI394
S'        self._custom_commit = None'
p120
sI395
S'        self._custom_rollback = None'
p121
sI396
S"        self.generic_patterns = ['*']"
p122
ssg87
S'(f=<function index>)'
p123
sg89
S'<lambda>'
p124
sa(dp125
g66
S'D:\\Desenvolvimento\\web2py\\applications\\anestesia\\controllers\\pagina_incluir.py'
p126
sg68
(dp127
S'global request'
p128
S"<Storage {'_vars': <Storage {'endocrinopalias': ...nvolvimento\\\\web2py\\\\applications\\\\anestesia\\\\'}>"
p129
sS'request.vars'
p130
S"<Storage {'endocrinopalias': 'sim', 'pescoco_mob...s_falhos': 'nao', 'doencas_psiquiatrica': 'sim'}>"
p131
sS'request.vars.cirurgiao'
p132
S'None'
p133
sS'cirurgiao'
p134
g110
ssg74
I1215
sg75
(dp135
I1216
S''
sI1217
S'    return dict(forulario=form_incluir, teste=teste)'
p136
sI1208
S'                                   balao=request.vars.balao,'
p137
sI1209
S'                                   laringoscopia=request.vars.laringoscopia,'
p138
sI1210
S'                                   broncofibroscopia=request.vars.broncofibroscopia,'
p139
sI1211
S'                                   estilete_luminoso=request.vars.estilete_luminoso,'
p140
sI1212
S'                                   videolaringoscopia=request.vars.videolaringoscopia,'
p141
sI1213
S'                                   cirurgia=request.vars.cirurgia,'
p142
sI1214
S'                                   anestesia=request.vars.anestesia,'
p143
sI1215
S'                                   cirurgiao=request.vars.cirurgiao)'
p144
ssg87
S'()'
p145
sg89
S'index'
p146
sa(dp147
g66
S'D:\\Desenvolvimento\\web2py\\gluon\\dal.py'
p148
sg68
(dp149
S'self._listify'
p150
S'<bound method Table._listify of <Table paciente ...ideolaringoscopia,cirurgia,anestesia,cirurgiao)>>'
p151
sS'fields'
p152
S"{'abertura_boca': 'sim', 'alergias': None, 'alteracao_neurologica': 'nao', 'altura': '4', 'an_gases': 'nao', 'anestesia': '4', 'anglina': 'sim', 'arritmias': 'sim', 'asa': '4', 'asma': 'nao', ...}"
p153
sS'self'
p154
S'<Table paciente (id,nr_registro,matricula_hugg,n...videolaringoscopia,cirurgia,anestesia,cirurgiao)>'
p155
sS'ret'
p156
g110
sS'self._db._adapter'
p157
S'<gluon.dal.PostgreSQLAdapter object>'
p158
sS'self._db._adapter.insert'
p159
S'<bound method PostgreSQLAdapter.insert of <gluon.dal.PostgreSQLAdapter object>>'
p160
sS'self._db'
p161
S'<DAL uri="postgres:******@teste.sistemas.unirio.br:5432/anestesia">'
p162
ssg74
I9317
sg75
(dp163
I9312
S''
sI9313
S'    def insert(self, **fields):'
p164
sI9314
S'        fields = self._defaults(fields)'
p165
sI9315
S'        self._attempt_upload(fields)'
p166
sI9316
S'        if any(f(fields) for f in self._before_insert): return 0'
p167
sI9317
S'        ret =  self._db._adapter.insert(self, self._listify(fields))'
p168
sI9318
S'        if ret and self._after_insert:'
p169
sI9319
S'            fields = Row(fields)'
p170
sI9320
S'            [f(fields, ret) for f in self._after_insert]'
p171
sI9321
S'        return ret'
p172
ssg87
S"(self=<Table paciente (id,nr_registro,matricula_hugg,n...videolaringoscopia,cirurgia,anestesia,cirurgiao)>, **fields={'abertura_boca': 'sim', 'alergias': None, 'alteracao_neurologica': 'nao', 'altura': '4', 'an_gases': 'nao', 'anestesia': '4', 'anglina': 'sim', 'arritmias': 'sim', 'asa': '4', 'asma': 'nao', ...})"
p173
sg89
S'insert'
p174
sa(dp175
g66
S'D:\\Desenvolvimento\\web2py\\gluon\\dal.py'
p176
sg68
(dp177
S'e'
S'ProgrammingError(\'ERROR\', \'22008\', \'date/time field value out of range: "15/11/1971"\')'
p178
ssg74
I1361
sg75
(dp179
I1356
S'            self.execute(query)'
p180
sI1357
S'        except Exception:'
p181
sI1358
S'            e = sys.exc_info()[1]'
p182
sI1359
S"            if hasattr(table, '_on_insert_error'):"
p183
sI1360
S'                return table._on_insert_error(table, fields, e)'
p184
sI1361
S'            raise e'
p185
sI1362
S"        if hasattr(table, '_primarykey'):"
p186
sI1363
S'            mydict = dict([(k[0].name, k[1]) for k in fields if k[0].name in table._primarykey])'
p187
sI1364
S'            if mydict != {}:'
p188
sI1365
S'                return mydict'
p189
ssg87
S"(self=<gluon.dal.PostgreSQLAdapter object>, table=<Table paciente (id,nr_registro,matricula_hugg,n...videolaringoscopia,cirurgia,anestesia,cirurgiao)>, fields=[(<gluon.dal.Field object>, 'sim'), (<gluon.dal.Field object>, 'sim'), (<gluon.dal.Field object>, None), (<gluon.dal.Field object>, 'sim'), (<gluon.dal.Field object>, '4'), (<gluon.dal.Field object>, '4'), (<gluon.dal.Field object>, 'nao'), (<gluon.dal.Field object>, '4'), (<gluon.dal.Field object>, None), (<gluon.dal.Field object>, 'sim'), (<gluon.dal.Field object>, 'nao'), (<gluon.dal.Field object>, '4'), (<gluon.dal.Field object>, 'nao'), (<gluon.dal.Field object>, 'sim'), (<gluon.dal.Field object>, None), (<gluon.dal.Field object>, 'nao'), (<gluon.dal.Field object>, None), (<gluon.dal.Field object>, 'sim'), (<gluon.dal.Field object>, 'sim'), (<gluon.dal.Field object>, None), ...])"
p190
sg89
g174
sasS'pyver'
p191
S'Python 2.7: C:\\Python27\\python.exe (prefix: C:\\Python27)'
p192
sS'session'
p193
g61
(S's9\x01\x00\x00<div><table><tr><td style="font-weight:bold;vertical-align:top;">last_orderby</td><td style="vertical-align:top;">:</td><td><div>None</div></td></tr><tr><td style="font-weight:bold;vertical-align:top;">last_query</td><td style="vertical-align:top;">:</td><td><div>db.paciente.id&gt;0</div></td></tr></table></div>'
tRp194
sS'etype'
p195
S"<class 'gluon.contrib.pg8000.errors.ProgrammingError'>"
p196
sS'date'
p197
S'Tue Dec 16 10:37:21 2014'
p198
sS'response'
p199
g61
(S's\xeb2\x00\x00<div><table><tr><td style="font-weight:bold;vertical-align:top;">body</td><td style="vertical-align:top;">:</td><td><div>&lt;cStringIO.StringO object at 0x09625AA0&gt;</div></td></tr><tr><td style="font-weight:bold;vertical-align:top;">cookies</td><td style="vertical-align:top;">:</td><td><div><table><tr><td style="font-weight:bold;vertical-align:top;">session_id_anestesia</td><td style="vertical-align:top;">:</td><td><div>127.0.0.1-f3e79e0a-00f4-4121-a50b-cf8a4b1af40b<table><tr><td style="font-weight:bold;vertical-align:top;">comment</td><td style="vertical-align:top;">:</td><td><div></div></td></tr><tr><td style="font-weight:bold;vertical-align:top;">domain</td><td style="vertical-align:top;">:</td><td><div></div></td></tr><tr><td style="font-weight:bold;vertical-align:top;">expires</td><td style="vertical-align:top;">:</td><td><div></div></td></tr><tr><td style="font-weight:bold;vertical-align:top;">httponly</td><td style="vertical-align:top;">:</td><td><div></div></td></tr><tr><td style="font-weight:bold;vertical-align:top;">max-age</td><td style="vertical-align:top;">:</td><td><div></div></td></tr><tr><td style="font-weight:bold;vertical-align:top;">path</td><td style="vertical-align:top;">:</td><td><div>/</div></td></tr><tr><td style="font-weight:bold;vertical-align:top;">secure</td><td style="vertical-align:top;">:</td><td><div></div></td></tr><tr><td style="font-weight:bold;vertical-align:top;">version</td><td style="vertical-align:top;">:</td><td><div></div></td></tr></table></div></td></tr></table></div></td></tr><tr><td style="font-weight:bold;vertical-align:top;">delimiters</td><td style="vertical-align:top;">:</td><td><div><table><tr><td><div>{{</div></td></tr><tr><td><div>}}</div></td></tr></table></div></td></tr><tr><td style="font-weight:bold;vertical-align:top;">files</td><td style="vertical-align:top;">:</td><td><div><table></table></div></td></tr><tr><td style="font-weight:bold;vertical-align:top;">flash</td><td style="vertical-align:top;">:</td><td><div></div></td></tr><tr><td style="font-weight:bold;vertical-align:top;">form_label_separator</td><td style="vertical-align:top;">:</td><td><div>: </div></td></tr><tr><td style="font-weight:bold;vertical-align:top;">formstyle</td><td style="vertical-align:top;">:</td><td><div>table3cols</div></td></tr><tr><td style="font-weight:bold;vertical-align:top;">generic_patterns</td><td style="vertical-align:top;">:</td><td><div><table><tr><td><div>*</div></td></tr></table></div></td></tr><tr><td style="font-weight:bold;vertical-align:top;">google_analytics_id</td><td style="vertical-align:top;">:</td><td><div>None</div></td></tr><tr><td style="font-weight:bold;vertical-align:top;">headers</td><td style="vertical-align:top;">:</td><td><div><table><tr><td style="font-weight:bold;vertical-align:top;">X-Powered-By</td><td style="vertical-align:top;">:</td><td><div>web2py</div></td></tr></table></div></td></tr><tr><td style="font-weight:bold;vertical-align:top;">logo</td><td style="vertical-align:top;">:</td><td><div><a class="brand" href="http://www.web2py.com/"><b>web<span>2</span>py</b>&trade;&nbsp;</a></div></td></tr><tr><td style="font-weight:bold;vertical-align:top;">menu</td><td style="vertical-align:top;">:</td><td><div><table><tr><td><div><table><tr><td><div>Principal</div></td></tr><tr><td><div>False</div></td></tr><tr><td><div>/anestesia/default/index</div></td></tr><tr><td><div><table></table></div></td></tr></table></div></td></tr><tr><td><div><table><tr><td><div><span class="highlighted">web2py</span></div></td></tr><tr><td><div>False</div></td></tr><tr><td><div>http://web2py.com</div></td></tr><tr><td><div><table><tr><td><div><table><tr><td><div>Meus sites</div></td></tr><tr><td><div>False</div></td></tr><tr><td><div>/admin/default/site</div></td></tr></table></div></td></tr><tr><td><div><table><tr><td><div>Esta aplica\xc3\xa7\xc3\xa3o</div></td></tr><tr><td><div>False</div></td></tr><tr><td><div>/admin/default/design/anestesia</div></td></tr><tr><td><div>[(&lt;lazyT &#x27;Controller&#x27;&gt;, False, &#x27;/admin/default/edit/anestesia/controllers/pagina_incluir.py&#x27;), (&lt;lazyT &#x27;View&#x27;&gt;, False, &#x27;/admin/default/edit/anestesia/views/pagina_incluir/index.html&#x27;), (&lt;lazyT &#x27;Layout&#x27;&gt;, False, &#x27;/admin/default/edit/anestesia/views/layout.html&#x27;), (&lt;lazyT &#x27;Stylesheet&#x27;&gt;, False, &#x27;/admin/default/edit/anestesia/static/css/web2py.css&#x27;), (&lt;lazyT &#x27;DB Model&#x27;&gt;, False, &#x27;/admin/default/edit/anestesia/models/db.py&#x27;), (&lt;lazyT &#x27;Menu Model&#x27;&gt;, False, &#x27;/admin/default/edit/anestesia/models/menu.py&#x27;), (&lt;lazyT &#x27;Database&#x27;&gt;, False, &#x27;/anestesia/appadmin/index&#x27;), (&lt;lazyT &#x27;Errors&#x27;&gt;, False, &#x27;/admin/default/errors/anestesia&#x27;), (&lt;lazyT &#x27;About&#x27;&gt;, False, &#x27;/admin/default/about/anestesia&#x27;)]</div></td></tr></table></div></td></tr><tr><td><div><table><tr><td><div>web2py.com</div></td></tr><tr><td><div>False</div></td></tr><tr><td><div>http://www.web2py.com</div></td></tr><tr><td><div>[(&lt;lazyT &#x27;Download&#x27;&gt;, False, &#x27;http://www.web2py.com/examples/default/download&#x27;), (&lt;lazyT &#x27;Support&#x27;&gt;, False, &#x27;http://www.web2py.com/examples/default/support&#x27;), (&lt;lazyT &#x27;Demo&#x27;&gt;, False, &#x27;http://web2py.com/demo_admin&#x27;), (&lt;lazyT &#x27;Quick Examples&#x27;&gt;, False, &#x27;http://web2py.com/examples/default/examples&#x27;), (&lt;lazyT &#x27;FAQ&#x27;&gt;, False, &#x27;http://web2py.com/AlterEgo&#x27;), (&lt;lazyT &#x27;Videos&#x27;&gt;, False, &#x27;http://www.web2py.com/examples/default/videos/&#x27;), (&lt;lazyT &#x27;Free Applications&#x27;&gt;, False, &#x27;http://web2py.com/appliances&#x27;), (&lt;lazyT &#x27;Plugins&#x27;&gt;, False, &#x27;http://web2py.com/plugins&#x27;), (&lt;lazyT &#x27;Layouts&#x27;&gt;, False, &#x27;http://web2py.com/layouts&#x27;), (&lt;lazyT &#x27;Recipes&#x27;&gt;, False, &#x27;http://web2pyslices.com/&#x27;), (&lt;lazyT &#x27;Semantic&#x27;&gt;, False, &#x27;http://web2py.com/semantic&#x27;)]</div></td></tr></table></div></td></tr><tr><td><div><table><tr><td><div>Documenta\xc3\xa7\xc3\xa3o</div></td></tr><tr><td><div>False</div></td></tr><tr><td><div>http://www.web2py.com/book</div></td></tr><tr><td><div>[(&lt;lazyT &#x27;Preface&#x27;&gt;, False, &#x27;http://www.web2py.com/book/default/chapter/00&#x27;), (&lt;lazyT &#x27;Introduction&#x27;&gt;, False, &#x27;http://www.web2py.com/book/default/chapter/01&#x27;), (&lt;lazyT &#x27;Python&#x27;&gt;, False, &#x27;http://www.web2py.com/book/default/chapter/02&#x27;), (&lt;lazyT &#x27;Overview&#x27;&gt;, False, &#x27;http://www.web2py.com/book/default/chapter/03&#x27;), (&lt;lazyT &#x27;The Core&#x27;&gt;, False, &#x27;http://www.web2py.com/book/default/chapter/04&#x27;), (&lt;lazyT &#x27;The Views&#x27;&gt;, False, &#x27;http://www.web2py.com/book/default/chapter/05&#x27;), (&lt;lazyT &#x27;Database&#x27;&gt;, False, &#x27;http://www.web2py.com/book/default/chapter/06&#x27;), (&lt;lazyT &#x27;Forms and Validators&#x27;&gt;, False, &#x27;http://www.web2py.com/book/default/chapter/07&#x27;), (&lt;lazyT &#x27;Email and SMS&#x27;&gt;, False, &#x27;http://www.web2py.com/book/default/chapter/08&#x27;), (&lt;lazyT &#x27;Access Control&#x27;&gt;, False, &#x27;http://www.web2py.com/book/default/chapter/09&#x27;), (&lt;lazyT &#x27;Services&#x27;&gt;, False, &#x27;http://www.web2py.com/book/default/chapter/10&#x27;), (&lt;lazyT &#x27;Ajax Recipes&#x27;&gt;, False, &#x27;http://www.web2py.com/book/default/chapter/11&#x27;), (&lt;lazyT &#x27;Components and Plugins&#x27;&gt;, False, &#x27;http://www.web2py.com/book/default/chapter/12&#x27;), (&lt;lazyT &#x27;Deployment Recipes&#x27;&gt;, False, &#x27;http://www.web2py.com/book/default/chapter/13&#x27;), (&lt;lazyT &#x27;Other Recipes&#x27;&gt;, False, &#x27;http://www.web2py.com/book/default/chapter/14&#x27;), (&lt;lazyT &#x27;Buy this book&#x27;&gt;, False, &#x27;http://stores.lulu.com/web2py&#x27;)]</div></td></tr></table></div></td></tr><tr><td><div><table><tr><td><div>Comunidade</div></td></tr><tr><td><div>False</div></td></tr><tr><td><div>None</div></td></tr><tr><td><div>[(&lt;lazyT &#x27;Groups&#x27;&gt;, False, &#x27;http://www.web2py.com/examples/default/usergroups&#x27;), (&lt;lazyT &#x27;Twitter&#x27;&gt;, False, &#x27;http://twitter.com/web2py&#x27;), (&lt;lazyT &#x27;Live Chat&#x27;&gt;, False, &#x27;http://webchat.freenode.net/?channels=web2py&#x27;)]</div></td></tr></table></div></td></tr><tr><td><div><table><tr><td><div>Plugins</div></td></tr><tr><td><div>False</div></td></tr><tr><td><div>None</div></td></tr><tr><td><div>[(&#x27;plugin_wiki&#x27;, False, &#x27;http://web2py.com/examples/default/download&#x27;), (&lt;lazyT &#x27;Other Plugins&#x27;&gt;, False, &#x27;http://web2py.com/plugins&#x27;), (&lt;lazyT &#x27;Layout Plugins&#x27;&gt;, False, &#x27;http://web2py.com/layouts&#x27;)]</div></td></tr></table></div></td></tr></table></div></td></tr></table></div></td></tr></table></div></td></tr><tr><td style="font-weight:bold;vertical-align:top;">meta</td><td style="vertical-align:top;">:</td><td><div><table><tr><td style="font-weight:bold;vertical-align:top;">author</td><td style="vertical-align:top;">:</td><td><div>Your Name &lt;you@example.com&gt;</div></td></tr><tr><td style="font-weight:bold;vertical-align:top;">generator</td><td style="vertical-align:top;">:</td><td><div>Web2py Web Framework</div></td></tr><tr><td style="font-weight:bold;vertical-align:top;">keywords</td><td style="vertical-align:top;">:</td><td><div>web2py, python, framework</div></td></tr></table></div></td></tr><tr><td style="font-weight:bold;vertical-align:top;">models_to_run</td><td style="vertical-align:top;">:</td><td><div><table><tr><td><div>^\\w+\\.py$</div></td></tr><tr><td><div>^pagina_incluir/\\w+\\.py$</div></td></tr><tr><td><div>^pagina_incluir/index/\\w+\\.py$</div></td></tr></table></div></td></tr><tr><td style="font-weight:bold;vertical-align:top;">postprocessing</td><td style="vertical-align:top;">:</td><td><div><table></table></div></td></tr><tr><td style="font-weight:bold;vertical-align:top;">session_client</td><td style="vertical-align:top;">:</td><td><div>127.0.0.1</div></td></tr><tr><td style="font-weight:bold;vertical-align:top;">session_cookie_compression_level</td><td style="vertical-align:top;">:</td><td><div>None</div></td></tr><tr><td style="font-weight:bold;vertical-align:top;">session_cookie_expires</td><td style="vertical-align:top;">:</td><td><div>None</div></td></tr><tr><td style="font-weight:bold;vertical-align:top;">session_cookie_key</td><td style="vertical-align:top;">:</td><td><div>None</div></td></tr><tr><td style="font-weight:bold;vertical-align:top;">session_data_name</td><td style="vertical-align:top;">:</td><td><div>session_data_anestesia</div></td></tr><tr><td style="font-weight:bold;vertical-align:top;">session_file</td><td style="vertical-align:top;">:</td><td><div>&lt;open file &#x27;D:\\Desenvolvimento\\web2py\\applications\\anestesia\\sessions\\138\\0b3\\127.0.0.1-f3e79e0a-00f4-4121-a50b-cf8a4b1af40b&#x27;, mode &#x27;rb+&#x27; at 0x08E7AE90&gt;</div></td></tr><tr><td style="font-weight:bold;vertical-align:top;">session_filename</td><td style="vertical-align:top;">:</td><td><div>D:\\Desenvolvimento\\web2py\\applications\\anestesia\\sessions\\127.0.0.1-f3e79e0a-00f4-4121-a50b-cf8a4b1af40b</div></td></tr><tr><td style="font-weight:bold;vertical-align:top;">session_hash</td><td style="vertical-align:top;">:</td><td><div>8acc9822ff734843e1dd1b3c4fe85282</div></td></tr><tr><td style="font-weight:bold;vertical-align:top;">session_id</td><td style="vertical-align:top;">:</td><td><div>127.0.0.1-f3e79e0a-00f4-4121-a50b-cf8a4b1af40b</div></td></tr><tr><td style="font-weight:bold;vertical-align:top;">session_id_name</td><td style="vertical-align:top;">:</td><td><div>session_id_anestesia</div></td></tr><tr><td style="font-weight:bold;vertical-align:top;">session_locked</td><td style="vertical-align:top;">:</td><td><div>True</div></td></tr><tr><td style="font-weight:bold;vertical-align:top;">session_masterapp</td><td style="vertical-align:top;">:</td><td><div>anestesia</div></td></tr><tr><td style="font-weight:bold;vertical-align:top;">session_new</td><td style="vertical-align:top;">:</td><td><div>False</div></td></tr><tr><td style="font-weight:bold;vertical-align:top;">session_storage_type</td><td style="vertical-align:top;">:</td><td><div>file</div></td></tr><tr><td style="font-weight:bold;vertical-align:top;">status</td><td style="vertical-align:top;">:</td><td><div>200</div></td></tr><tr><td style="font-weight:bold;vertical-align:top;">subtitle</td><td style="vertical-align:top;">:</td><td><div></div></td></tr><tr><td style="font-weight:bold;vertical-align:top;">title</td><td style="vertical-align:top;">:</td><td><div>Anestesia</div></td></tr><tr><td style="font-weight:bold;vertical-align:top;">view</td><td style="vertical-align:top;">:</td><td><div>pagina_incluir/index.html</div></td></tr></table></div>'
tRp200
sS'locals'
p201
(dp202
S'query'
p203
S'"INSERT INTO paciente(endocrinopalias,protese,obs...NULL,\'T\',\'4\',NULL,\'T\',\'4\',NULL,\'T\') RETURNING id;"'
p204
sS'self'
p205
S'<gluon.dal.PostgreSQLAdapter object>'
p206
sS'e'
S'ProgrammingError(\'ERROR\', \'22008\', \'date/time field value out of range: "15/11/1971"\')'
p207
sS'fields'
p208
S"[(<gluon.dal.Field object>, 'sim'), (<gluon.dal.Field object>, 'sim'), (<gluon.dal.Field object>, None), (<gluon.dal.Field object>, 'sim'), (<gluon.dal.Field object>, '4'), (<gluon.dal.Field object>, '4'), (<gluon.dal.Field object>, 'nao'), (<gluon.dal.Field object>, '4'), (<gluon.dal.Field object>, None), (<gluon.dal.Field object>, 'sim'), (<gluon.dal.Field object>, 'nao'), (<gluon.dal.Field object>, '4'), (<gluon.dal.Field object>, 'nao'), (<gluon.dal.Field object>, 'sim'), (<gluon.dal.Field object>, None), (<gluon.dal.Field object>, 'nao'), (<gluon.dal.Field object>, None), (<gluon.dal.Field object>, 'sim'), (<gluon.dal.Field object>, 'sim'), (<gluon.dal.Field object>, None), ...]"
p209
sS'table'
p210
S'<Table paciente (id,nr_registro,matricula_hugg,n...videolaringoscopia,cirurgia,anestesia,cirurgiao)>'
p211
sssS'traceback'
p212
S'Traceback (most recent call last):\n  File "D:\\Desenvolvimento\\web2py\\gluon\\restricted.py", line 224, in restricted\n    exec ccode in environment\n  File "D:\\Desenvolvimento\\web2py\\applications\\anestesia\\controllers/pagina_incluir.py", line 1218, in <module>\n  File "D:\\Desenvolvimento\\web2py\\gluon\\globals.py", line 392, in <lambda>\n    self._caller = lambda f: f()\n  File "D:\\Desenvolvimento\\web2py\\applications\\anestesia\\controllers/pagina_incluir.py", line 1215, in index\n    cirurgiao=request.vars.cirurgiao)\n  File "D:\\Desenvolvimento\\web2py\\gluon\\dal.py", line 9317, in insert\n    ret =  self._db._adapter.insert(self, self._listify(fields))\n  File "D:\\Desenvolvimento\\web2py\\gluon\\dal.py", line 1361, in insert\n    raise e\nProgrammingError: (\'ERROR\', \'22008\', \'date/time field value out of range: "15/11/1971"\')\n'
p213
s.