(dp1
S'output'
p2
S"<type 'exceptions.SyntaxError'> invalid syntax (controllers/pagina_buscar.py, line 513)"
p3
sS'layer'
p4
S'D:\\Desenvolvimento\\web2py\\applications\\anestesia\\controllers/pagina_buscar.py'
p5
sS'code'
p6
S'__author__ = \'Mohamed\'\nimport sys\nimport json\nimport cgi\n\ndef gerar_campos_busca():\n    campos = FORM(\n        DIV(_id=\'div_campos_busca_geral\',\n            *FIELDSET(\n                LEGEND(_id=\'lgd_campos_busca_geral\',\n                       *\'BUSCA\'),\n                INPUT(_type=\'radio\', _id=\'chk_busca_1\', _name=\'chk_busca\'),\n                \'Nome: \',\n                INPUT(_type=\'text\', _id=\'nome_busca\', _name=\'nome_busca\'),\n                BR(),\n                INPUT(_type=\'radio\', _id=\'chk_busca_2\', _name=\'chk_busca\'),\n                \'Nr Registro: \',\n                INPUT(_type=\'text\', _id=\'nr_registro_busca\', _name=\'nr_registro_busca\'),\n                BR(),\n                BR(),\n                INPUT(_type=\'submit\', _value=\'BUSCAR\', _id=\'btn_buscar\'),\n                INPUT(_type=\'hidden\', _id=\'campo_hidden_escolha_busca\', _name=\'campo_hidden_escolha_busca\'),\n                INPUT(_type=\'hidden\', _id=\'campo_hidden_id_busca\', _name=\'campo_hidden_id_busca\')\n            )\n        )\n    )\n    return campos\n\n\ndef consulta_nome(nome):\n    linhas = db(db.paciente.nome.like(\'%\' + nome + \'%\')).select()\n    return linhas\n\n\ndef consulta_registro(registro):\n    linhas = db(db.paciente.nr_registro == registro).select()\n    return linhas\n\n\ndef conta_consulta(dado, selecao):\n    nr_linhas = \'\'\n    query = \'\'\n    if selecao == 1:\n        query = (db.paciente.nome == dado)\n        nr_linhas = db(query).count()\n    elif selecao == 2:\n        query = (db.paciente.nr_registro == dado)\n        nr_linhas = db(query).count()\n    return nr_linhas\n\ndef carrega_dados():\n    query = db(db.paciente.id == request.vars.id).select()\n    for dados in query:\n        campos = FORM(\n            DIV(_id=\'div_geral\',\n                *DIV(\n                    DIV(\n                        FIELDSET(\n                            LEGEND(_id=\'lgd_dados_gerais\',\n                                   *\'DADOS GERAIS\'\n                            ),\n                            \'Nr Registro:\',\n                            INPUT(_type=\'hidden\', _id=\'hidden_nr_registro\', _name=\'hidden_nr_registro\', _value=dados.nr_registro),\n                            INPUT(_id=\'nr_registro\', _name=\'nr_registro\', _value=dados.nr_registro),\n                            \'Matricula HUGG:\',\n                            INPUT(_type=\'hidden\', _id=\'hidden_matricula_hugg\', _name=\'hidden_matricula_hugg\', _value=dados.matricula_hugg),\n                            INPUT(_id=\'matricula_hugg\', _name=\'matricula_hugg\', _value=dados.matricula_hugg),\n                            BR(),\n                            \'Nome: \',\n                            INPUT(_type=\'hidden\', _id=\'hidden_nome\', _name=\'hidden_nome\', _value=dados.nome),\n                            INPUT(_id=\'nome\', _name=\'nome\', _value=dados.nome),\n                            \'Data: \',\n                            INPUT(_type=\'hidden\', _id=\'hidden_data\', _name=\'hidden_data\', _value=dados.data),\n                            INPUT(_id=\'data\', _name=\'data\', _value=dados.data),\n                            \'Ficha Nr: \',\n                            INPUT(_type=\'hidden\', _id=\'hidden_ficha_nr\', _name=\'hidden_ficha_nr\', _value=dados.ficha_nr),\n                            INPUT(_id=\'ficha_nr\', _name=\'ficha_nr\', _value=dados.ficha_nr),\n                            BR(),\n                            \'Enf:\',\n                            INPUT(_type=\'hidden\', _id=\'hidden_enfermaria\', _name=\'hidden_enfermaria\', _value=dados.enfermaria),\n                            INPUT(_id=\'enfermaria\', _name=\'enfermaria\', _value=dados.enfermaria),\n                            \'Leito:\',\n                            INPUT(_type=\'hidden\', _id=\'hidden_leito\', _name=\'hidden_leito\', _value=dados.leito),\n                            INPUT(_id=\'leito\', _name=\'leito\', _value=dados.leito),\n                            BR(),\n                            \'Idade:\',\n                            INPUT(_type=\'hidden\', _id=\'hidden_idade\', _name=\'hidden_idade\', _value=dados.idade),\n                            INPUT(_id=\'idade\', _name=\'idade\', _value=dados.idade),\n                            \'ASA:\',\n                            INPUT(_type=\'hidden\', _id=\'hidden_asa\', _name=\'hidden_asa\', _value=dados.asa),\n                            INPUT(_id=\'asa\', _name=\'asa\', _value=dados.asa),\n                            \'Clinica:\',\n                            INPUT(_type=\'hidden\', _id=\'hidden_clinica\', _name=\'hidden_clinica\', _value=dados.clinica),\n                            INPUT(_id=\'clinica\', _name=\'clinica\', _value=dados.clinica),\n                            \'SO:\',\n                            INPUT(_type=\'hidden\', _id=\'hidden_so\', _name=\'hidden_so\', _value=dados.so),\n                            INPUT(_id=\'so\', _name=\'so\', _value=dados.so),\n                            DIV(_id=\'div_e\',\n                                *FIELDSET(\n                                    \'E:\',\n                                    INPUT(_type=\'hidden\', _id=\'hidden_e\', _name=\'hidden_e\', _value=dados.dados_cadastrais_e),\n                                    INPUT(_id=\'radio_dados_cadastrais_e_sim\',\n                                          _type=\'radio\',\n                                          _name=\'dados_cadastrais_e\',\n                                          _value=\'T\'),\n                                    \'sim\',\n                                    INPUT(_id=\'radio_dados_cadastrais_e_nao\',\n                                          _type=\'radio\',\n                                          _name=\'dados_cadastrais_e\',\n                                          _value=\'F\'),\n                                    \'n\xc3\xa3o\',\n                                )\n                            ),\n                            \'Sexo:\',\n                            INPUT(_type=\'hidden\', _id=\'hidden_sexo\', _name=\'hidden_sexo\', _value=dados.dados_cadastrais_sexo),\n                            INPUT(_id=\'radio_sexo_f\',\n                                  _type=\'radio\',\n                                  _name=\'dados_cadastrais_sexo\',\n                                  _value=\'F\'),\n                            \'F\',\n\n                            INPUT(_id=\'radio_sexo_m\',\n                                  _type=\'radio\',\n                                  _name=\'dados_cadastrais_sexo\',\n                                  _value=\'M\'),\n                            \'M\',\n\n                            BR(),\n                            \'Altura:\',\n                            INPUT(_type=\'hidden\', _id=\'hidden_altura\', _name=\'hidden_altura\', _value=dados.altura),\n                            INPUT(_id=\'altura\', _name=\'altura\', _value=dados.altura),\n                            \'Peso:\',\n                            INPUT(_type=\'hidden\', _id=\'hidden_peso\', _name=\'hidden_peso\', _value=dados.peso),\n                            INPUT(_id=\'peso\', _name=\'peso\', _value=dados.peso),\n                            \'Temp:\',\n                            INPUT(_type=\'hidden\', _id=\'hidden_temperatura\', _name=\'hidden_temperatura\', _value=dados.temperatura),\n                            INPUT(_id=\'temperatura\', _name=\'temperatura\', _value=dados.temperatura),\n                            \'Pulso:\',\n                            INPUT(_type=\'hidden\', _id=\'hidden_pulso\', _name=\'hidden_pulso\', _value=dados.pulso),\n                            INPUT(_id=\'pulso\', _name=\'pulso\', _value=dados.pulso),\n                            \'Resp.:\',\n                            INPUT(_type=\'hidden\', _id=\'hidden_respiracao\', _name=\'hidden_respiracao\', _value=dados.respiracao),\n                            INPUT(_id=\'respiracao\', _name=\'respiracao\', _value=dados.respiracao),\n                            \'PA:\',\n                            INPUT(_type=\'hidden\', _id=\'hidden_pa\', _name=\'hidden_pa\', _value=dados.pa),\n                            INPUT(_id=\'pa\', _name=\'pa\', _value=dados.pa),\n                            HR(),\n                            \'Diagn\xc3\xb3stico\',\n                            INPUT(_type=\'hidden\', _id=\'hidden_diagnostico\', _name=\'hidden_diagnostico\', _value=dados.diagnostico),\n                            INPUT(_type=\'text\', _id=\'diagnostico\', _name=\'diagnostico\', _value=dados.diagnostico),\n                            \'Cirurgia\',\n                            INPUT(_type=\'hidden\', _id=\'hidden_dados_cirurgia_anterior\', _name=\'hidden_dados_cirurgia_anterior\', _value=dados.dados_cirurgia_anterior),\n                            INPUT(_type=\'text\', _id=\'dados_cirurgia_anterior\', _name=\'dados_cirurgia_anterior\', _value=dados.dados_cirurgia_anterior),\n                            HR(),\n                            DIV(_id=\'div_respiratorio\',\n                                *FIELDSET(\n                                    LEGEND(\'RESPIRAT\xc3\x93RIO\',\n                                           _id=\'lgd_respiratorio\'),\n                                    TABLE(\n                                        TR(\n                                            TD(\n                                                \'Tabagismo\',\n                                                INPUT(_type=\'hidden\', _id=\'hidden_tabagismo\', _name=\'hidden_tabagismo\', _value=dados.tabagismo),\n                                                INPUT(_id=\'radio_tabag_sim\',\n                                                      _type=\'radio\',\n                                                      _name=\'tabagismo\',\n                                                      _value=\'T\'),\n                                                \'sim\',\n                                                INPUT(_id=\'radio_tabag_nao\',\n                                                      _type=\'radio\',\n                                                      _name=\'tabagismo\',\n                                                      _value=\'F\'),\n                                                \'n\xc3\xa3o\',\n                                                BR(),\n                                                \'Asma\',\n                                                INPUT(_type=\'hidden\', _id=\'hidden_asma\', _name=\'hidden_asma\', _value=dados.asma),\n                                                INPUT(_id=\'radio_asma_sim\',\n                                                      _type=\'radio\',\n                                                      _name=\'asma\',\n                                                      _value=\'T\'),\n                                                \'sim\',\n                                                INPUT(_id=\'radio_asma_nao\',\n                                                      _type=\'radio\',\n                                                      _name=\'asma\',\n                                                      _value=\'F\'),\n                                                \'n\xc3\xa3o\',\n                                                BR(),\n                                                \'Tosse / Expectora\xc3\xa7\xc3\xa3o\',\n                                                INPUT(_type=\'hidden\', _id=\'hidden_tosse\', _name=\'hidden_tosse\', _value=dados.tosse),\n                                                INPUT(_id=\'radio_tosse_sim\',\n                                                      _type=\'radio\',\n                                                      _name=\'tosse\',\n                                                      _value=\'T\'),\n                                                \'sim\',\n                                                INPUT(_id=\'radio_tosse_nao\',\n                                                      _type=\'radio\',\n                                                      _name=\'tosse\',\n                                                      _value=\'F\'),\n                                                \'n\xc3\xa3o\',\n                                                BR(),\n                                                \'DPOC / Bronquiectasia\',\n                                                INPUT(_type=\'hidden\', _id=\'hidden_dpoc\', _name=\'hidden_dpoc\', _value=dados.dpoc),\n                                                INPUT(_id=\'radio_dpoc_sim\',\n                                                      _type=\'radio\',\n                                                      _name=\'dpoc\',\n                                                      _value=\'T\'),\n                                                \'sim\',\n                                                INPUT(_id=\'radio_dpoc_nao\',\n                                                      _type=\'radio\',\n                                                      _name=\'dpoc\',\n                                                      _value=\'F\'),\n                                                \'n\xc3\xa3o\',\n                                                BR(),\n                                                \'BK/Insuf. Respirat\xc3\xb3ria\',\n                                                INPUT(_type=\'hidden\', _id=\'hidden_bk_insuficiencia\', _name=\'hidden_bk_insuficiencia\', _value=dados.bk_insuficiencia),\n                                                INPUT(_id=\'radio_bk_sim\',\n                                                      _type=\'radio\',\n                                                      _name=\'bk_insuficiencia\',\n                                                      _value=\'T\'),\n                                                \'sim\',\n                                                INPUT(_id=\'radio_bk_nao\',\n                                                      _type=\'radio\',\n                                                      _name=\'bk_insuficiencia\',\n                                                      _value=\'F\'),\n                                                \'n\xc3\xa3o\',\n                                                BR(),\n                                                \'Derrame pleural / Emplema\',\n                                                INPUT(_type=\'hidden\', _id=\'hidden_derrame_pleural\', _name=\'hidden_derrame_pleural\', _value=dados.derrame_pleural),\n                                                INPUT(_id=\'radio_der_pleural_sim\',\n                                                      _type=\'radio\',\n                                                      _name=\'derrame_pleural\',\n                                                      _value=\'T\'),\n                                                \'sim\',\n                                                INPUT(_id=\'radio_der_pleural_nao\',\n                                                      _type=\'radio\',\n                                                      _name=\'derrame_pleural\',\n                                                      _value=\'F\'),\n                                                \'n\xc3\xa3o\',\n                                                BR(),\n                                                \'Cir. Tor\xc3\xa1cica\',\n                                                INPUT(_type=\'hidden\', _id=\'hidden_circunferencia_toraxica\', _name=\'hidden_circunferencia_toraxica\', _value=dados.circunferencia_toraxica),\n                                                INPUT(_id=\'radio_circ_tor_sim\',\n                                                      _type=\'radio\',\n                                                      _name=\'circunferencia_toraxica\',\n                                                      _value=\'T\'),\n                                                \'sim\',\n                                                INPUT(_id=\'radio_circ_tor_nao\',\n                                                      _type=\'radio\',\n                                                      _name=\'circunferencia_toraxica\',\n                                                      _value=\'F\'),\n                                                \'n\xc3\xa3o\',\n                                            )\n                                        )\n                                    )\n                                )\n                            ),\n                            DIV(_id=\'div_cardiovascular\',\n                                *FIELDSET(\n                                    LEGEND(_id=\'lgd_cardiovascular\',\n                                           *\'CARDIOVASCULAR\'),\n                                    TABLE(\n                                        TR(\n                                            TD(\n                                                \'HAS\',\n                                                INPUT(_type=\'hidden\', _id=\'hidden_has\', _name=\'hidden_has\', _value=dados.has),\n                                                INPUT(_id=\'radio_has_sim\',\n                                                      _type=\'radio\',\n                                                      _name=\'has\',\n                                                      _value=\'T\'),\n                                                \'sim\',\n                                                INPUT(_id=\'radio_has_nao\',\n                                                      _type=\'radio\',\n                                                      _name=\'has\',\n                                                      _value=\'F\'),\n                                                \'n\xc3\xa3o\',\n                                                BR(),\n                                                \'ICC\',\n                                                INPUT(_type=\'hidden\', _id=\'hidden_icc\', _name=\'hidden_icc\', _value=dados.icc),\n                                                INPUT(_id=\'radio_icc_sim\',\n                                                      _type=\'radio\',\n                                                      _name=\'icc\',\n                                                      _value=\'T\'),\n                                                \'sim\',\n                                                INPUT(_id=\'radio_icc_nao\',\n                                                      _type=\'radio\',\n                                                      _name=\'icc\',\n                                                      _value=\'F\'),\n                                                \'n\xc3\xa3o\',\n                                                BR(),\n                                                \'Anglina\',\n                                                INPUT(_type=\'hidden\', _id=\'hidden_anglina\', _name=\'hidden_anglina\', _value=dados.anglina),\n                                                INPUT(_id=\'radio_anglina_sim\',\n                                                      _type=\'radio\',\n                                                      _name=\'anglina\',\n                                                      _value=\'T\'),\n                                                \'sim\',\n                                                INPUT(_id=\'radio_anglina_nao\',\n                                                      _type=\'radio\',\n                                                      _name=\'anglina\',\n                                                      _value=\'F\'),\n                                                \'n\xc3\xa3o\',\n                                                BR(),\n                                                \'IAM\',\n                                                INPUT(_type=\'hidden\', _id=\'hidden_iam\', _name=\'hidden_iam\', _value=dados.iam),\n                                                INPUT(_id=\'radio_iam_sim\',\n                                                      _type=\'radio\',\n                                                      _name=\'iam\',\n                                                      _value=\'T\'),\n                                                \'sim\',\n                                                INPUT(_id=\'radio_iam_nao\',\n                                                      _type=\'radio\',\n                                                      _name=\'iam\',\n                                                      _value=\'F\'),\n                                                \'n\xc3\xa3o\',\n                                                BR(),\n                                                \'Valvulopalla\',\n                                                INPUT(_type=\'hidden\', _id=\'hidden_valvulopalla\', _name=\'hidden_valvulopalla\', _value=dados.valvulopalla),\n                                                INPUT(_id=\'radio_valvulopalla_sim\',\n                                                      _type=\'radio\',\n                                                      _name=\'valvulopalla\',\n                                                      _value=\'T\'),\n                                                \'sim\',\n                                                INPUT(_id=\'radio_valvulopalla_nao\',\n                                                      _type=\'radio\',\n                                                      _name=\'valvulopalla\',\n                                                      _value=\'F\'),\n                                                \'n\xc3\xa3o\',\n                                                BR(),\n                                                \'Marcapasso\',\n                                                INPUT(_type=\'hidden\', _id=\'hidden_marcapasso\', _name=\'hidden_marcapasso\', _value=dados.marcapasso),\n                                                INPUT(_id=\'radio_marcapasso_sim\',\n                                                      _type=\'radio\',\n                                                      _name=\'marcapasso\',\n                                                      _value=\'T\'),\n                                                \'sim\',\n                                                INPUT(_id=\'radio_marcapasso_nao\',\n                                                      _type=\'radio\',\n                                                      _name=\'marcapasso\',\n                                                      _value=\'F\'),\n                                                \'n\xc3\xa3o\',\n                                                BR(),\n                                                \'Arritmias\',\n                                                INPUT(_type=\'hidden\', _id=\'hidden_arritmias\', _name=\'hidden_arritmias\', _value=dados.arritmias),\n                                                INPUT(_id=\'radio_arritmias_sim\',\n                                                      _type=\'radio\',\n                                                      _name=\'arritmias\',\n                                                      _value=\'T\'),\n                                                \'sim\',\n                                                INPUT(_id=\'radio_arritmias_nao\',\n                                                      _type=\'radio\',\n                                                      _name=\'arritmias\',\n                                                      _value=\'F\'),\n                                                \'n\xc3\xa3o\',\n                                                BR(),\n                                                \'Insuf. Venosa\',\n                                                INPUT(_type=\'hidden\', _id=\'hidden_insuf_venosa\', _name=\'hidden_insuf_venosa\', _value=dados.insuf_venosa),\n                                                INPUT(_id=\'radio_insuf_venosa_sim\',\n                                                      _type=\'radio\',\n                                                      _name=\'insuf_venosa\',\n                                                      _value=\'T\'),\n                                                \'sim\',\n                                                INPUT(_id=\'radio_insuf_venosa_nao\',\n                                                      _type=\'radio\',\n                                                      _name=\'insuf_venosa\',\n                                                      _value=\'F\'),\n                                                \'n\xc3\xa3o\',\n                                            )\n                                        )\n                                    )\n                                )\n                            ),\n                            BR(),\n                            DIV(_id=\'div_outros\',\n                                *FIELDSET(\n                                    LEGEND(_id=\'lgd_outros\',\n                                       *\'Outros\'),\n                                    DIV(_id=\'div_outros_esq\',\n                                        *TABLE(\n                                        TR(\n                                            TD(\n                                                \'Diabetes: \',\n                                                INPUT(_type=\'hidden\', _id=\'hidden_diabetes\', _name=\'hidden_diabetes\', _value=dados.diabetes),\n                                                INPUT(_id=\'radio_diabetes_sim\',\n                                                      _type=\'radio\',\n                                                      _name=\'diabetes\',\n                                                      _value=\'T\'),\n                                                \'sim\',\n                                                INPUT(_id=\'radio_diabetes_nao\',\n                                                      _type=\'radio\',\n                                                      _name=\'diabetes\',\n                                                      _value=\'F\'),\n                                                \'n\xc3\xa3o\',\n                                                BR(),\n                                                \'Hipertireoidismo: \',\n                                                INPUT(_type=\'hidden\', _id=\'hidden_hipertireoidismo\', _name=\'hidden_hipertireoidismo\', _value=dados.hipertireoidismo),\n                                                INPUT(_id=\'radio_hipertireoidismo_sim\',\n                                                      _type=\'radio\',\n                                                      _name=\'hipertireoidismo\',\n                                                      _value=\'T\'),\n                                                \'sim\',\n                                                INPUT(_id=\'radio_hipertireoidismo_nao\',\n                                                      _type=\'radio\',\n                                                      _name=\'hipertireoidismo\',\n                                                      _value=\'F\'),\n                                                \'n\xc3\xa3o\',\n                                                BR(),\n                                                \'Endocrinopalias: \',\n                                                INPUT(_type=\'hidden\', _id=\'hidden_endocrinopalias\', _name=\'hidden_endocrinopalias\', _value=dados.endocrinopalias),\n                                                INPUT(_id=\'radio_endocrinopalias_sim\',\n                                                      _type=\'radio\',\n                                                      _name=\'endocrinopalias\',\n                                                      _value=\'T\'),\n                                                \'sim\',\n                                                INPUT(_id=\'radio_endocrinopalias_nao\',\n                                                      _type=\'radio\',\n                                                      _name=\'endocrinopalias\',\n                                                      _value=\'F\'),\n                                                \'n\xc3\xa3o\',\n                                                BR(),\n                                                \'Cirrose: \',\n                                                INPUT(_type=\'hidden\', _id=\'hidden_cirrose\', _name=\'hidden_cirrose\', _value=dados.cirrose),\n                                                INPUT(_id=\'radio_cirrose_sim\',\n                                                      _type=\'radio\',\n                                                      _name=\'cirrose\',\n                                                      _value=\'T\'),\n                                                \'sim\',\n                                                INPUT(_id=\'radio_cirrose_nao\',\n                                                      _type=\'radio\',\n                                                      _name=\'cirrose\',\n                                                      _value=\'F\'),\n                                                \'n\xc3\xa3o\',\n                                                BR(),\n                                                \'Hepatite A: \',\n                                                INPUT(_type=\'hidden\', _id=\'hidden_hepatite_a\', _name=\'hidden_hepatite_a\', _value=dados.hepatite_a),\n                                                INPUT(_id=\'radio_hepa_sim\',\n                                                      _type=\'radio\',\n                                                      _name=\'hepatite_a\',\n                                                      _value=\'T\'),\n                                                \'sim\',\n                                                INPUT(_id=\'radio_hepa_nao\',\n                                                      _type=\'radio\',\n                                                      _name=\'hepatite_a\',\n                                                      _value=\'F\'),\n                                                \'n\xc3\xa3o\',\n                                                BR(),\n                                                \'Hepatite B: \',\n                                                INPUT(_type=\'hidden\', _id=\'hidden_hepatite_b\', _name=\'hidden_hepatite_b\', _value=dados.hepatite_b),\n                                                INPUT(_id=\'radio_hepb_sim\',\n                                                      _type=\'radio\',\n                                                      _name=\'hepatite_b\',\n                                                      _value=\'T\'),\n                                                \'sim\',\n                                                INPUT(_id=\'radio_hepb_nao\',\n                                                      _type=\'radio\',\n                                                      _name=\'hepatite_b\',\n                                                      _value=\'F\'),\n                                                \'n\xc3\xa3o\',\n                                                BR(),\n                                                \'Hepatite C: \',\n                                                INPUT(_type=\'hidden\', _id=\'hidden_hepatite_c\', _name=\'hidden_hepatite_c\', _value=dados.hepatite_c),\n                                                INPUT(_id=\'radio_hepc_sim\',\n                                                      _type=\'radio\',\n                                                      _name=\'hepatite_c\',\n                                                      _value=\'T\'),\n                                                \'sim\',\n                                                INPUT(_id=\'radio_hepc_nao\',\n                                                      _type=\'radio\',\n                                                      _name=\'hepatite_c\',\n                                                      _value=\'F\'),\n                                                \'n\xc3\xa3o\',\n                                                BR(),\n                                                \'Elilismo: \',\n                                                INPUT(_type=\'hidden\', _id=\'hidden_elilismo\', _name=\'hidden_elilismo\', _value=dados.elilismo),\n                                                INPUT(_id=\'radio_elilismo_sim\',\n                                                      _type=\'radio\',\n                                                      _name=\'elilismo\',\n                                                      _value=\'T\'),\n                                                \'sim\',\n                                                INPUT(_id=\'radio_elilismo_nao\',\n                                                      _type=\'radio\',\n                                                      _name=\'elilismo\',\n                                                      _value=\'F\'),\n                                                \'n\xc3\xa3o\',\n                                                BR(),\n                                                \'HIV / SIDA: \',\n                                                INPUT(_type=\'hidden\', _id=\'hidden_hiv\', _name=\'hidden_hiv\', _value=dados.hiv),\n                                                INPUT(_id=\'radio_hiv_sim\',\n                                                      _type=\'radio\',\n                                                      _name=\'hiv\',\n                                                      _value=\'T\'),\n                                                \'sim\',\n                                                INPUT(_id=\'radio_hiv_nao\',\n                                                      _type=\'radio\',\n                                                      _name=\'hiv\',\n                                                      _value=\'F\'),\n                                                \'n\xc3\xa3o\',\n                                                BR(),\n                                                \'Infec\xc3\xa7\xc3\xb5es Oportunistas: \',\n                                                INPUT(_type=\'hidden\', _id=\'hidden_infeccoes_oportunistas\', _name=\'hidden_infeccoes_oportunistas\', _value=dados.infeccoes_oportunistas),\n                                                INPUT(_id=\'radio_inf_opor_sim\',\n                                                      _type=\'radio\',\n                                                      _name=\'infeccoes_oportunistas\',\n                                                      _value=\'T\'),\n                                                \'sim\',\n                                                INPUT(_id=\'radio_inf_opor_nao\',\n                                                      _type=\'radio\',\n                                                      _name=\'infeccoes_oportunistas\',\n                                                      _value=\'F\'),\n                                                \'n\xc3\xa3o\',\n                                            )\n                                        ),\n                                    ),\n                                    ),\n                                    DIV(_id=\'div_outros_centro\',\n                                    *TABLE(\n                                        *TR(\n                                            TD(\n                                                TD(\n                                                    \'Insuf. Renal: \',\n                                                    INPUT(_type=\'hidden\', _id=\'hidden_insuf_renal\', _name=\'hidden_insuf_renal\', _value=dados.insuf_renal),\n                                                    INPUT(_id=\'radio_insuf_renal_sim\',\n                                                          _type=\'radio\',\n                                                          _name=\'insuf_renal\',\n                                                          _value=\'T\'),\n                                                    \'sim\',\n                                                    INPUT(_id=\'radio_insuf_renal_nao\',\n                                                          _type=\'radio\',\n                                                          _name=\'insuf_renal\',\n                                                          _value=\'F\'),\n                                                    \'n\xc3\xa3o\',\n                                                    BR(),\n                                                    \'Hemod. Di\xc3\xa1lise Peritoneal: \',\n                                                    INPUT(_type=\'hidden\', _id=\'hidden_hemodialise_peritoneal\', _name=\'hidden_hemodialise_peritoneal\', _value=dados.hemodialise_peritoneal),\n                                                    INPUT(_id=\'radio_hemod_sim\',\n                                                          _type=\'radio\',\n                                                          _name=\'hemodialise_peritoneal\',\n                                                          _value=\'T\'),\n                                                    \'sim\',\n                                                    INPUT(_id=\'radio_hemod_nao\',\n                                                          _type=\'radio\',\n                                                          _name=\'hemodialise_peritoneal\',\n                                                          _value=\'F\'),\n                                                    \'n\xc3\xa3o\',\n                                                    BR(),\n                                                    \'Dist\xc3\xbarbios Hemorr\xc3\xa1gicos: \',\n                                                    INPUT(_type=\'hidden\', _id=\'hidden_disturbios_hemorragicos\', _name=\'hidden_disturbios_hemorragicos\', _value=dados.disturbios_hemorragicos),\n                                                    INPUT(_id=\'radio_dist_hemo_sim\',\n                                                          _type=\'radio\',\n                                                          _name=\'disturbios_hemorragicos\',\n                                                          _value=\'T\'),\n                                                    \'sim\',\n                                                    INPUT(_id=\'radio_dist_hemo_nao\',\n                                                          _type=\'radio\',\n                                                          _name=\'disturbios_hemorragicos\',\n                                                          _value=\'F\'),\n                                                    \'n\xc3\xa3o\',\n                                                    BR(),\n                                                    \'AVC Pr\xc3\xa9vio: \',\n                                                    INPUT(_type=\'hidden\', _id=\'hidden_avc_previo\', _name=\'hidden_avc_previo\', _value=dados.avc_previo),\n                                                    INPUT(_id=\'radio_avc_previo_sim\',\n                                                          _type=\'radio\',\n                                                          _name=\'avc_previo\',\n                                                          _value=\'T\'),\n                                                    \'sim\',\n                                                    INPUT(_id=\'radio_avc_previo_nao\',\n                                                          _type=\'radio\',\n                                                          _name=\'avc_previo\',\n                                                          _value=\'F\'),\n                                                    \'n\xc3\xa3o\',\n                                                    BR(),\n                                                    \'D. Psiqui\xc3\xa1trica: \',\n                                                    INPUT(_type=\'hidden\', _id=\'hidden_doencas_psiquiatricas\', _name=\'hidden_doencas_psiquiatricas\', _value=dados.doencas_psiquiatricas),\n                                                    INPUT(_id=\'radio_d_psi_sim\',\n                                                          _type=\'radio\',\n                                                          _name=\'doencas_psiquiatricas\',\n                                                          _value=\'T\'),\n                                                    \'sim\',\n                                                    INPUT(_id=\'radio_d_psi_nao\',\n                                                          _type=\'radio\',\n                                                          _name=\'doencas_psiquiatrica\',\n                                                          _value=\'F\'),\n                                                    \'n\xc3\xa3o\',\n                                                    BR(),\n                                                    \'D. Neuromuscular: \',\n                                                    INPUT(_type=\'hidden\', _id=\'hidden_doencas_neuromuscular\', _name=\'hidden_doencas_neuromuscular\', _value=dados.doencas_neuromuscular),\n                                                    INPUT(_id=\'radio_d_neuro_musc_sim\',\n                                                          _type=\'radio\',\n                                                          _name=\'doencas_neuromuscular\',\n                                                          _value=\'T\'),\n                                                    \'sim\',\n                                                    INPUT(_id=\'radio_d_neuro_musc_nao\',\n                                                          _type=\'radio\',\n                                                          _name=\'doencas_neuromuscular\',\n                                                          _value=\'F\'),\n                                                    \'n\xc3\xa3o\',\n                                                    BR(),\n                                                    \'D. Reum\xc3\xa1tica: \',\n                                                    INPUT(_type=\'hidden\', _id=\'hidden_doencas_reumaticas\', _name=\'hidden_doencas_reumaticas\', _value=dados.doencas_reumaticas),\n                                                    INPUT(_id=\'radio_d_reuma_sim\',\n                                                          _type=\'radio\',\n                                                          _name=\'doencas_reumaticas\',\n                                                          _value=\'T\'),\n                                                    \'sim\',\n                                                    INPUT(_id=\'radio_d_reuma_nao\',\n                                                          _type=\'radio\',\n                                                          _name=\'doencas_reumaticas\',\n                                                          _value=\'F\'),\n                                                    \'n\xc3\xa3o\',\n                                                    BR(),\n                                                    \'Alt. Neurol\xc3\xb3gica: \',\n                                                    INPUT(_type=\'hidden\', _id=\'hidden_alteracao_neurologica\', _name=\'hidden_alteracao_neurologica\', _value=dados.alteracao_neurologica),\n                                                    INPUT(_id=\'radio_alt_neuro_sim\',\n                                                          _type=\'radio\',\n                                                          _name=\'alteracao_neurologica\',\n                                                          _value=\'T\'),\n                                                    \'sim\',\n                                                    INPUT(_id=\'radio_alt_neuro_nao\',\n                                                          _type=\'radio\',\n                                                          _name=\'alteracao_neurologica\',\n                                                          _value=\'F\'),\n                                                    \'n\xc3\xa3o\',\n                                                    BR(),\n                                                    \'Hemotransfus\xc3\xa3o pr\xc3\xa9via: \',\n                                                    INPUT(_type=\'hidden\', _id=\'hidden_hemotransfusao_previa\', _name=\'hidden_hemotransfusao_previa\', _value=dados.hemotransfusao_previa),\n                                                    INPUT(_id=\'radio_hemo_prev_sim\',\n                                                          _type=\'radio\',\n                                                          _name=\'hemotransfusao_previa\',\n                                                          _value=\'T\'),\n                                                    \'sim\',\n                                                    INPUT(_id=\'radio_hemo_prev_nao\',\n                                                          _type=\'radio\',\n                                                          _name=\'hemotransfusao_previa\',\n                                                          _value=\'F\'),\n                                                    \'n\xc3\xa3o\',\n                                                ),\n                                            )\n                                        )\n                                    )\n                                ),\n                                DIV(_id=\'div_outros_dir\',\n                                    *TABLE(\n                                        TR(\n                                            TD(\n                                                \'Observa\xc3\xa7\xc3\xb5es Gerais\'\n                                            )\n                                        ),\n                                        BR(),\n                                        TR(\n                                            TD(\n                                                INPUT(_type="text", _id=\'hidden_obs_gerais\', _name=\'hidden_obs_gerais\', _value=dados.obs_gerais),\n                                                TEXTAREA(_id=\'obs_gerais\', _name=\'obs_gerais\')\n                                            )\n                                        )\n                                    )\n                                ),\n\n\n\n\n                                )\n                            )\n\n\n                        ),\n                    ),\n                ),\n            ),\n        )\n        return campos\n\n\ndef index():\n    myconsulta = \'\'\n    linhas = \'\'\n    dados = \'\'\n    qtd_linhas = 0\n    busca = gerar_campos_busca()\n\n    campo_h = request.vars.campo_hidden_escolha_busca\n    if busca.accepts(request, session):\n        if request.vars.campo_hidden_escolha_busca == "1":\n            linhas = consulta_nome(request.vars.nome_busca)\n            qtd_linhas = conta_consulta(request.vars.nome_busca, 1)\n        elif request.vars.campo_hidden_escolha_busca == "2":\n            linhas = consulta_registro(request.vars.nr_registro_busca)\n            qtd_linhas = conta_consulta(request.vars.nr_registro_busca, 2)\n\n    return dict(busca=busca, linhas=linhas, nr_linhas=qtd_linhas)\n\nresponse._vars=response._caller(index)\n'
p7
sS'snapshot'
p8
(dp9
S'exception'
p10
(dp11
S'__getslice__'
p12
S"<method-wrapper '__getslice__' of exceptions.SyntaxError object>"
p13
sS'text'
p14
S"'                                    ),\\n'"
p15
sS'__str__'
p16
S"<method-wrapper '__str__' of exceptions.SyntaxError object>"
p17
sS'__reduce__'
p18
S'<built-in method __reduce__ of exceptions.SyntaxError object>'
p19
sS'__dict__'
p20
S'{}'
p21
sS'__sizeof__'
p22
S'<built-in method __sizeof__ of exceptions.SyntaxError object>'
p23
sS'__init__'
p24
S"<method-wrapper '__init__' of exceptions.SyntaxError object>"
p25
sS'__setattr__'
p26
S"<method-wrapper '__setattr__' of exceptions.SyntaxError object>"
p27
sS'__reduce_ex__'
p28
S'<built-in method __reduce_ex__ of exceptions.SyntaxError object>'
p29
sS'__new__'
p30
S'<built-in method __new__ of type object>'
p31
sS'__format__'
p32
S'<built-in method __format__ of exceptions.SyntaxError object>'
p33
sS'__class__'
p34
S"<type 'exceptions.SyntaxError'>"
p35
sS'filename'
p36
S"r'D:\\Desenvolvimento\\web2py\\applications\\anestesia\\controllers/pagina_buscar.py'"
p37
sS'lineno'
p38
S'513'
p39
sS'msg'
p40
S"'invalid syntax'"
p41
sS'__doc__'
p42
S"'Invalid syntax.'"
p43
sS'__getitem__'
p44
S"<method-wrapper '__getitem__' of exceptions.SyntaxError object>"
p45
sS'__setstate__'
p46
S'<built-in method __setstate__ of exceptions.SyntaxError object>'
p47
sS'__getattribute__'
p48
S"<method-wrapper '__getattribute__' of exceptions.SyntaxError object>"
p49
sS'print_file_and_line'
p50
S'None'
p51
sS'args'
p52
S"('invalid syntax', (r'D:\\Desenvolvimento\\web2py\\applications\\anestesia\\controllers/pagina_buscar.py', 513, 37, '                                    ),\\n'))"
p53
sS'__subclasshook__'
p54
S'<built-in method __subclasshook__ of type object>'
p55
sS'offset'
p56
S'37'
p57
sS'__unicode__'
p58
S'<built-in method __unicode__ of exceptions.SyntaxError object>'
p59
sS'__delattr__'
p60
S"<method-wrapper '__delattr__' of exceptions.SyntaxError object>"
p61
sS'__repr__'
p62
S"<method-wrapper '__repr__' of exceptions.SyntaxError object>"
p63
sS'__hash__'
p64
S"<method-wrapper '__hash__' of exceptions.SyntaxError object>"
p65
ssS'evalue'
p66
S'invalid syntax (controllers/pagina_buscar.py, line 513)'
p67
sS'request'
p68
cgluon.html
XML_unpickle
p69
(S's\xc5e\x00\x00<div><table><tr><td style="font-weight:bold;vertical-align:top;">ajax</td><td style="vertical-align:top;">:</td><td><div>False</div></td></tr><tr><td style="font-weight:bold;vertical-align:top;">application</td><td style="vertical-align:top;">:</td><td><div>anestesia</div></td></tr><tr><td style="font-weight:bold;vertical-align:top;">args</td><td style="vertical-align:top;">:</td><td><div><table></table></div></td></tr><tr><td style="font-weight:bold;vertical-align:top;">cid</td><td style="vertical-align:top;">:</td><td><div>None</div></td></tr><tr><td style="font-weight:bold;vertical-align:top;">client</td><td style="vertical-align:top;">:</td><td><div>127.0.0.1</div></td></tr><tr><td style="font-weight:bold;vertical-align:top;">controller</td><td style="vertical-align:top;">:</td><td><div>pagina_buscar</div></td></tr><tr><td style="font-weight:bold;vertical-align:top;">cookies</td><td style="vertical-align:top;">:</td><td><div><table><tr><td style="font-weight:bold;vertical-align:top;">session_id_admin</td><td style="vertical-align:top;">:</td><td><div>127.0.0.1-063ce324-197b-49a7-b3fb-edce959dc191<table><tr><td style="font-weight:bold;vertical-align:top;">comment</td><td style="vertical-align:top;">:</td><td><div></div></td></tr><tr><td style="font-weight:bold;vertical-align:top;">domain</td><td style="vertical-align:top;">:</td><td><div></div></td></tr><tr><td style="font-weight:bold;vertical-align:top;">expires</td><td style="vertical-align:top;">:</td><td><div></div></td></tr><tr><td style="font-weight:bold;vertical-align:top;">httponly</td><td style="vertical-align:top;">:</td><td><div></div></td></tr><tr><td style="font-weight:bold;vertical-align:top;">max-age</td><td style="vertical-align:top;">:</td><td><div></div></td></tr><tr><td style="font-weight:bold;vertical-align:top;">path</td><td style="vertical-align:top;">:</td><td><div></div></td></tr><tr><td style="font-weight:bold;vertical-align:top;">secure</td><td style="vertical-align:top;">:</td><td><div></div></td></tr><tr><td style="font-weight:bold;vertical-align:top;">version</td><td style="vertical-align:top;">:</td><td><div></div></td></tr></table></div></td></tr><tr><td style="font-weight:bold;vertical-align:top;">session_id_anestesia</td><td style="vertical-align:top;">:</td><td><div>127.0.0.1-2323f882-280a-40ac-baa0-fc1d4b833d0a<table><tr><td style="font-weight:bold;vertical-align:top;">comment</td><td style="vertical-align:top;">:</td><td><div></div></td></tr><tr><td style="font-weight:bold;vertical-align:top;">domain</td><td style="vertical-align:top;">:</td><td><div></div></td></tr><tr><td style="font-weight:bold;vertical-align:top;">expires</td><td style="vertical-align:top;">:</td><td><div></div></td></tr><tr><td style="font-weight:bold;vertical-align:top;">httponly</td><td style="vertical-align:top;">:</td><td><div></div></td></tr><tr><td style="font-weight:bold;vertical-align:top;">max-age</td><td style="vertical-align:top;">:</td><td><div></div></td></tr><tr><td style="font-weight:bold;vertical-align:top;">path</td><td style="vertical-align:top;">:</td><td><div></div></td></tr><tr><td style="font-weight:bold;vertical-align:top;">secure</td><td style="vertical-align:top;">:</td><td><div></div></td></tr><tr><td style="font-weight:bold;vertical-align:top;">version</td><td style="vertical-align:top;">:</td><td><div></div></td></tr></table></div></td></tr><tr><td style="font-weight:bold;vertical-align:top;">session_id_anestesia2</td><td style="vertical-align:top;">:</td><td><div>127.0.0.1-efce398b-cb8b-4d15-b614-2b3baee63a6f<table><tr><td style="font-weight:bold;vertical-align:top;">comment</td><td style="vertical-align:top;">:</td><td><div></div></td></tr><tr><td style="font-weight:bold;vertical-align:top;">domain</td><td style="vertical-align:top;">:</td><td><div></div></td></tr><tr><td style="font-weight:bold;vertical-align:top;">expires</td><td style="vertical-align:top;">:</td><td><div></div></td></tr><tr><td style="font-weight:bold;vertical-align:top;">httponly</td><td style="vertical-align:top;">:</td><td><div></div></td></tr><tr><td style="font-weight:bold;vertical-align:top;">max-age</td><td style="vertical-align:top;">:</td><td><div></div></td></tr><tr><td style="font-weight:bold;vertical-align:top;">path</td><td style="vertical-align:top;">:</td><td><div></div></td></tr><tr><td style="font-weight:bold;vertical-align:top;">secure</td><td style="vertical-align:top;">:</td><td><div></div></td></tr><tr><td style="font-weight:bold;vertical-align:top;">version</td><td style="vertical-align:top;">:</td><td><div></div></td></tr></table></div></td></tr></table></div></td></tr><tr><td style="font-weight:bold;vertical-align:top;">env</td><td style="vertical-align:top;">:</td><td><div><table><tr><td style="font-weight:bold;vertical-align:top;">CONTENT_LENGTH</td><td style="vertical-align:top;">:</td><td><div>724</div></td></tr><tr><td style="font-weight:bold;vertical-align:top;">CONTENT_TYPE</td><td style="vertical-align:top;">:</td><td><div>multipart/form-data; boundary=---------------------------12093138255819</div></td></tr><tr><td style="font-weight:bold;vertical-align:top;">HTTP_ACCEPT</td><td style="vertical-align:top;">:</td><td><div>text/html,application/xhtml+xml,application/xml;q=0.9,*/*;q=0.8</div></td></tr><tr><td style="font-weight:bold;vertical-align:top;">HTTP_ACCEPT_ENCODING</td><td style="vertical-align:top;">:</td><td><div>gzip, deflate</div></td></tr><tr><td style="font-weight:bold;vertical-align:top;">HTTP_ACCEPT_LANGUAGE</td><td style="vertical-align:top;">:</td><td><div>pt-BR,pt;q=0.8,en-US;q=0.5,en;q=0.3</div></td></tr><tr><td style="font-weight:bold;vertical-align:top;">HTTP_CACHE_CONTROL</td><td style="vertical-align:top;">:</td><td><div>max-age=0</div></td></tr><tr><td style="font-weight:bold;vertical-align:top;">HTTP_CONNECTION</td><td style="vertical-align:top;">:</td><td><div>keep-alive</div></td></tr><tr><td style="font-weight:bold;vertical-align:top;">HTTP_CONTENT_LENGTH</td><td style="vertical-align:top;">:</td><td><div>724</div></td></tr><tr><td style="font-weight:bold;vertical-align:top;">HTTP_CONTENT_TYPE</td><td style="vertical-align:top;">:</td><td><div>multipart/form-data; boundary=---------------------------12093138255819</div></td></tr><tr><td style="font-weight:bold;vertical-align:top;">HTTP_COOKIE</td><td style="vertical-align:top;">:</td><td><div>session_id_anestesia=127.0.0.1-2323f882-280a-40ac-baa0-fc1d4b833d0a; session_id_admin=127.0.0.1-063ce324-197b-49a7-b3fb-edce959dc191; session_id_anestesia2=127.0.0.1-efce398b-cb8b-4d15-b614-2b3baee63a6f</div></td></tr><tr><td style="font-weight:bold;vertical-align:top;">HTTP_HOST</td><td style="vertical-align:top;">:</td><td><div>127.0.0.1:8000</div></td></tr><tr><td style="font-weight:bold;vertical-align:top;">HTTP_REFERER</td><td style="vertical-align:top;">:</td><td><div>http://127.0.0.1:8000/anestesia/pagina_buscar/index</div></td></tr><tr><td style="font-weight:bold;vertical-align:top;">HTTP_USER_AGENT</td><td style="vertical-align:top;">:</td><td><div>Mozilla/5.0 (Windows NT 6.3; WOW64; rv:34.0) Gecko/20100101 Firefox/34.0</div></td></tr><tr><td style="font-weight:bold;vertical-align:top;">PATH_INFO</td><td style="vertical-align:top;">:</td><td><div>/anestesia/pagina_buscar/index</div></td></tr><tr><td style="font-weight:bold;vertical-align:top;">QUERY_STRING</td><td style="vertical-align:top;">:</td><td><div></div></td></tr><tr><td style="font-weight:bold;vertical-align:top;">REMOTE_ADDR</td><td style="vertical-align:top;">:</td><td><div>127.0.0.1</div></td></tr><tr><td style="font-weight:bold;vertical-align:top;">REMOTE_PORT</td><td style="vertical-align:top;">:</td><td><div>51884</div></td></tr><tr><td style="font-weight:bold;vertical-align:top;">REQUEST_METHOD</td><td style="vertical-align:top;">:</td><td><div>POST</div></td></tr><tr><td style="font-weight:bold;vertical-align:top;">SCRIPT_NAME</td><td style="vertical-align:top;">:</td><td><div></div></td></tr><tr><td style="font-weight:bold;vertical-align:top;">SERVER_NAME</td><td style="vertical-align:top;">:</td><td><div>MOHAMED-DTIC</div></td></tr><tr><td style="font-weight:bold;vertical-align:top;">SERVER_PORT</td><td style="vertical-align:top;">:</td><td><div>8000</div></td></tr><tr><td style="font-weight:bold;vertical-align:top;">SERVER_PROTOCOL</td><td style="vertical-align:top;">:</td><td><div>HTTP/1.1</div></td></tr><tr><td style="font-weight:bold;vertical-align:top;">SERVER_SOFTWARE</td><td style="vertical-align:top;">:</td><td><div>Rocket 1.2.6</div></td></tr><tr><td style="font-weight:bold;vertical-align:top;">app_folders</td><td style="vertical-align:top;">:</td><td><div>set([&#x27;D:\\\\Desenvolvimento\\\\web2py\\\\applications\\\\admin\\\\&#x27;, &#x27;D:\\\\Desenvolvimento\\\\web2py\\\\applications\\\\anestesia\\\\&#x27;, &#x27;D:\\\\Desenvolvimento\\\\web2py\\\\applications\\\\welcome\\\\&#x27;])</div></td></tr><tr><td style="font-weight:bold;vertical-align:top;">applications_parent</td><td style="vertical-align:top;">:</td><td><div>D:\\Desenvolvimento\\web2py</div></td></tr><tr><td style="font-weight:bold;vertical-align:top;">cmd_args</td><td style="vertical-align:top;">:</td><td><div><table></table></div></td></tr><tr><td style="font-weight:bold;vertical-align:top;">cmd_options</td><td style="vertical-align:top;">:</td><td><div>&lt;Values at 0x2f4b698: {&#x27;verbose&#x27;: False, &#x27;ip&#x27;: &#x27;127.0.0.1&#x27;, &#x27;debuglevel&#x27;: 30, &#x27;with_scheduler&#x27;: False, &#x27;ips&#x27;: [&#x27;192.168.71.1&#x27;, &#x27;fe80::4023:9900:3196:7ccb%5&#x27;, &#x27;10.129.18.33&#x27;, &#x27;192.168.16.1&#x27;, &#x27;fe80::6dc3:bcf7:daee:374c%7&#x27;, &#x27;fe80::4932:49bd:49c6:6ebe%3&#x27;], &#x27;shutdown_timeout&#x27;: 5, &#x27;taskbar&#x27;: False, &#x27;with_coverage&#x27;: False, &#x27;scheduler_groups&#x27;: None, &#x27;port&#x27;: 8000, &#x27;maxthreads&#x27;: None, &#x27;softcron&#x27;: False, &#x27;server_name&#x27;: &#x27;MOHAMED-DTIC&#x27;, &#x27;bpython&#x27;: False, &#x27;nogui&#x27;: False, &#x27;pid_filename&#x27;: &#x27;httpserver.pid&#x27;, &#x27;extcron&#x27;: False, &#x27;runcron&#x27;: False, &#x27;run_system_tests&#x27;: False, &#x27;test&#x27;: None, &#x27;folder&#x27;: &#x27;D:\\\\Desenvolvimento\\\\web2py&#x27;, &#x27;config&#x27;: &#x27;&#x27;, &#x27;minthreads&#x27;: None, &#x27;shell&#x27;: None, &#x27;run&#x27;: &#x27;&#x27;, &#x27;log_filename&#x27;: &#x27;httpserver.log&#x27;, &#x27;profiler_dir&#x27;: None, &#x27;args&#x27;: [&#x27;&#x27;], &#x27;socket_timeout&#x27;: 5, &#x27;ssl_ca_certificate&#x27;: None, &#x27;scheduler&#x27;: None, &#x27;interfaces&#x27;: None, &#x27;ssl_private_key&#x27;: &#x27;&#x27;, &#x27;gae&#x27;: None, &#x27;password&#x27;: &#x27;&lt;ask&gt;&#x27;, &#x27;request_queue_size&#x27;: 5, &#x27;ssl_certificate&#x27;: &#x27;&#x27;, &#x27;cronjob&#x27;: False, &#x27;numthreads&#x27;: None, &#x27;quiet&#x27;: False, &#x27;import_models&#x27;: False, &#x27;timeout&#x27;: 10, &#x27;plain&#x27;: False, &#x27;nobanner&#x27;: False}&gt;</div></td></tr><tr><td style="font-weight:bold;vertical-align:top;">content_length</td><td style="vertical-align:top;">:</td><td><div>724</div></td></tr><tr><td style="font-weight:bold;vertical-align:top;">content_type</td><td style="vertical-align:top;">:</td><td><div>multipart/form-data; boundary=---------------------------12093138255819</div></td></tr><tr><td style="font-weight:bold;vertical-align:top;">db_sessions</td><td style="vertical-align:top;">:</td><td><div>set([])</div></td></tr><tr><td style="font-weight:bold;vertical-align:top;">debugging</td><td style="vertical-align:top;">:</td><td><div>False</div></td></tr><tr><td style="font-weight:bold;vertical-align:top;">gluon_parent</td><td style="vertical-align:top;">:</td><td><div>D:\\Desenvolvimento\\web2py</div></td></tr><tr><td style="font-weight:bold;vertical-align:top;">http_accept</td><td style="vertical-align:top;">:</td><td><div>text/html,application/xhtml+xml,application/xml;q=0.9,*/*;q=0.8</div></td></tr><tr><td style="font-weight:bold;vertical-align:top;">http_accept_encoding</td><td style="vertical-align:top;">:</td><td><div>gzip, deflate</div></td></tr><tr><td style="font-weight:bold;vertical-align:top;">http_accept_language</td><td style="vertical-align:top;">:</td><td><div>pt-BR,pt;q=0.8,en-US;q=0.5,en;q=0.3</div></td></tr><tr><td style="font-weight:bold;vertical-align:top;">http_cache_control</td><td style="vertical-align:top;">:</td><td><div>max-age=0</div></td></tr><tr><td style="font-weight:bold;vertical-align:top;">http_connection</td><td style="vertical-align:top;">:</td><td><div>keep-alive</div></td></tr><tr><td style="font-weight:bold;vertical-align:top;">http_content_length</td><td style="vertical-align:top;">:</td><td><div>724</div></td></tr><tr><td style="font-weight:bold;vertical-align:top;">http_content_type</td><td style="vertical-align:top;">:</td><td><div>multipart/form-data; boundary=---------------------------12093138255819</div></td></tr><tr><td style="font-weight:bold;vertical-align:top;">http_cookie</td><td style="vertical-align:top;">:</td><td><div>session_id_anestesia=127.0.0.1-2323f882-280a-40ac-baa0-fc1d4b833d0a; session_id_admin=127.0.0.1-063ce324-197b-49a7-b3fb-edce959dc191; session_id_anestesia2=127.0.0.1-efce398b-cb8b-4d15-b614-2b3baee63a6f</div></td></tr><tr><td style="font-weight:bold;vertical-align:top;">http_host</td><td style="vertical-align:top;">:</td><td><div>127.0.0.1:8000</div></td></tr><tr><td style="font-weight:bold;vertical-align:top;">http_referer</td><td style="vertical-align:top;">:</td><td><div>http://127.0.0.1:8000/anestesia/pagina_buscar/index</div></td></tr><tr><td style="font-weight:bold;vertical-align:top;">http_user_agent</td><td style="vertical-align:top;">:</td><td><div>Mozilla/5.0 (Windows NT 6.3; WOW64; rv:34.0) Gecko/20100101 Firefox/34.0</div></td></tr><tr><td style="font-weight:bold;vertical-align:top;">is_jython</td><td style="vertical-align:top;">:</td><td><div>False</div></td></tr><tr><td style="font-weight:bold;vertical-align:top;">is_pypy</td><td style="vertical-align:top;">:</td><td><div>False</div></td></tr><tr><td style="font-weight:bold;vertical-align:top;">is_source</td><td style="vertical-align:top;">:</td><td><div>True</div></td></tr><tr><td style="font-weight:bold;vertical-align:top;">local_hosts</td><td style="vertical-align:top;">:</td><td><div><table><tr><td><div>192.168.71.1</div></td></tr><tr><td><div>fe80::4023:9900:3196:7ccb%5</div></td></tr><tr><td><div>fe80::6dc3:bcf7:daee:374c%7</div></td></tr><tr><td><div>::ffff:127.0.0.1</div></td></tr><tr><td><div>MOHAMED-DTIC</div></td></tr><tr><td><div>10.129.18.33</div></td></tr><tr><td><div>192.168.16.1</div></td></tr><tr><td><div>::1</div></td></tr><tr><td><div>MOHAMED-DTIC.unirio.br</div></td></tr><tr><td><div>127.0.0.1</div></td></tr><tr><td><div>fe80::4932:49bd:49c6:6ebe%3</div></td></tr></table></div></td></tr><tr><td style="font-weight:bold;vertical-align:top;">path_info</td><td style="vertical-align:top;">:</td><td><div>/anestesia/pagina_buscar/index</div></td></tr><tr><td style="font-weight:bold;vertical-align:top;">query_string</td><td style="vertical-align:top;">:</td><td><div></div></td></tr><tr><td style="font-weight:bold;vertical-align:top;">remote_addr</td><td style="vertical-align:top;">:</td><td><div>127.0.0.1</div></td></tr><tr><td style="font-weight:bold;vertical-align:top;">remote_port</td><td style="vertical-align:top;">:</td><td><div>51884</div></td></tr><tr><td style="font-weight:bold;vertical-align:top;">request_method</td><td style="vertical-align:top;">:</td><td><div>POST</div></td></tr><tr><td style="font-weight:bold;vertical-align:top;">request_uri</td><td style="vertical-align:top;">:</td><td><div>/anestesia/pagina_buscar/index</div></td></tr><tr><td style="font-weight:bold;vertical-align:top;">script_name</td><td style="vertical-align:top;">:</td><td><div></div></td></tr><tr><td style="font-weight:bold;vertical-align:top;">server_name</td><td style="vertical-align:top;">:</td><td><div>MOHAMED-DTIC</div></td></tr><tr><td style="font-weight:bold;vertical-align:top;">server_port</td><td style="vertical-align:top;">:</td><td><div>8000</div></td></tr><tr><td style="font-weight:bold;vertical-align:top;">server_protocol</td><td style="vertical-align:top;">:</td><td><div>HTTP/1.1</div></td></tr><tr><td style="font-weight:bold;vertical-align:top;">server_software</td><td style="vertical-align:top;">:</td><td><div>Rocket 1.2.6</div></td></tr><tr><td style="font-weight:bold;vertical-align:top;">web2py_path</td><td style="vertical-align:top;">:</td><td><div>D:\\Desenvolvimento\\web2py</div></td></tr><tr><td style="font-weight:bold;vertical-align:top;">web2py_version</td><td style="vertical-align:top;">:</td><td><div>2.9.11-stable+timestamp.2014.09.15.23.35.11</div></td></tr><tr><td style="font-weight:bold;vertical-align:top;">wsgi.errors</td><td style="vertical-align:top;">:</td><td><div>&lt;open file &#x27;&lt;stderr&gt;&#x27;, mode &#x27;w&#x27; at 0x01CF50D0&gt;</div></td></tr><tr><td style="font-weight:bold;vertical-align:top;">wsgi.file_wrapper</td><td style="vertical-align:top;">:</td><td><div>&lt;class wsgiref.util.FileWrapper at 0x02EF91F0&gt;</div></td></tr><tr><td style="font-weight:bold;vertical-align:top;">wsgi.input</td><td style="vertical-align:top;">:</td><td><div>&lt;socket._fileobject object at 0x02F45EF0&gt;</div></td></tr><tr><td style="font-weight:bold;vertical-align:top;">wsgi.multiprocess</td><td style="vertical-align:top;">:</td><td><div>False</div></td></tr><tr><td style="font-weight:bold;vertical-align:top;">wsgi.multithread</td><td style="vertical-align:top;">:</td><td><div>True</div></td></tr><tr><td style="font-weight:bold;vertical-align:top;">wsgi.run_once</td><td style="vertical-align:top;">:</td><td><div>False</div></td></tr><tr><td style="font-weight:bold;vertical-align:top;">wsgi.url_scheme</td><td style="vertical-align:top;">:</td><td><div>http</div></td></tr><tr><td style="font-weight:bold;vertical-align:top;">wsgi.version</td><td style="vertical-align:top;">:</td><td><div><table><tr><td><div>1</div></td></tr><tr><td><div>0</div></td></tr></table></div></td></tr><tr><td style="font-weight:bold;vertical-align:top;">wsgi_errors</td><td style="vertical-align:top;">:</td><td><div>&lt;open file &#x27;&lt;stderr&gt;&#x27;, mode &#x27;w&#x27; at 0x01CF50D0&gt;</div></td></tr><tr><td style="font-weight:bold;vertical-align:top;">wsgi_file_wrapper</td><td style="vertical-align:top;">:</td><td><div>&lt;class wsgiref.util.FileWrapper at 0x02EF91F0&gt;</div></td></tr><tr><td style="font-weight:bold;vertical-align:top;">wsgi_input</td><td style="vertical-align:top;">:</td><td><div>&lt;socket._fileobject object at 0x02F45EF0&gt;</div></td></tr><tr><td style="font-weight:bold;vertical-align:top;">wsgi_multiprocess</td><td style="vertical-align:top;">:</td><td><div>False</div></td></tr><tr><td style="font-weight:bold;vertical-align:top;">wsgi_multithread</td><td style="vertical-align:top;">:</td><td><div>True</div></td></tr><tr><td style="font-weight:bold;vertical-align:top;">wsgi_run_once</td><td style="vertical-align:top;">:</td><td><div>False</div></td></tr><tr><td style="font-weight:bold;vertical-align:top;">wsgi_url_scheme</td><td style="vertical-align:top;">:</td><td><div>http</div></td></tr><tr><td style="font-weight:bold;vertical-align:top;">wsgi_version</td><td style="vertical-align:top;">:</td><td><div><table><tr><td><div>1</div></td></tr><tr><td><div>0</div></td></tr></table></div></td></tr></table></div></td></tr><tr><td style="font-weight:bold;vertical-align:top;">extension</td><td style="vertical-align:top;">:</td><td><div>html</div></td></tr><tr><td style="font-weight:bold;vertical-align:top;">folder</td><td style="vertical-align:top;">:</td><td><div>D:\\Desenvolvimento\\web2py\\applications\\anestesia\\</div></td></tr><tr><td style="font-weight:bold;vertical-align:top;">function</td><td style="vertical-align:top;">:</td><td><div>index</div></td></tr><tr><td style="font-weight:bold;vertical-align:top;">global_settings</td><td style="vertical-align:top;">:</td><td><div><table><tr><td style="font-weight:bold;vertical-align:top;">app_folders</td><td style="vertical-align:top;">:</td><td><div>set([&#x27;D:\\\\Desenvolvimento\\\\web2py\\\\applications\\\\admin\\\\&#x27;, &#x27;D:\\\\Desenvolvimento\\\\web2py\\\\applications\\\\anestesia\\\\&#x27;, &#x27;D:\\\\Desenvolvimento\\\\web2py\\\\applications\\\\welcome\\\\&#x27;])</div></td></tr><tr><td style="font-weight:bold;vertical-align:top;">applications_parent</td><td style="vertical-align:top;">:</td><td><div>D:\\Desenvolvimento\\web2py</div></td></tr><tr><td style="font-weight:bold;vertical-align:top;">cmd_args</td><td style="vertical-align:top;">:</td><td><div><table></table></div></td></tr><tr><td style="font-weight:bold;vertical-align:top;">cmd_options</td><td style="vertical-align:top;">:</td><td><div>&lt;Values at 0x2f4b698: {&#x27;verbose&#x27;: False, &#x27;ip&#x27;: &#x27;127.0.0.1&#x27;, &#x27;debuglevel&#x27;: 30, &#x27;with_scheduler&#x27;: False, &#x27;ips&#x27;: [&#x27;192.168.71.1&#x27;, &#x27;fe80::4023:9900:3196:7ccb%5&#x27;, &#x27;10.129.18.33&#x27;, &#x27;192.168.16.1&#x27;, &#x27;fe80::6dc3:bcf7:daee:374c%7&#x27;, &#x27;fe80::4932:49bd:49c6:6ebe%3&#x27;], &#x27;shutdown_timeout&#x27;: 5, &#x27;taskbar&#x27;: False, &#x27;with_coverage&#x27;: False, &#x27;scheduler_groups&#x27;: None, &#x27;port&#x27;: 8000, &#x27;maxthreads&#x27;: None, &#x27;softcron&#x27;: False, &#x27;server_name&#x27;: &#x27;MOHAMED-DTIC&#x27;, &#x27;bpython&#x27;: False, &#x27;nogui&#x27;: False, &#x27;pid_filename&#x27;: &#x27;httpserver.pid&#x27;, &#x27;extcron&#x27;: False, &#x27;runcron&#x27;: False, &#x27;run_system_tests&#x27;: False, &#x27;test&#x27;: None, &#x27;folder&#x27;: &#x27;D:\\\\Desenvolvimento\\\\web2py&#x27;, &#x27;config&#x27;: &#x27;&#x27;, &#x27;minthreads&#x27;: None, &#x27;shell&#x27;: None, &#x27;run&#x27;: &#x27;&#x27;, &#x27;log_filename&#x27;: &#x27;httpserver.log&#x27;, &#x27;profiler_dir&#x27;: None, &#x27;args&#x27;: [&#x27;&#x27;], &#x27;socket_timeout&#x27;: 5, &#x27;ssl_ca_certificate&#x27;: None, &#x27;scheduler&#x27;: None, &#x27;interfaces&#x27;: None, &#x27;ssl_private_key&#x27;: &#x27;&#x27;, &#x27;gae&#x27;: None, &#x27;password&#x27;: &#x27;&lt;ask&gt;&#x27;, &#x27;request_queue_size&#x27;: 5, &#x27;ssl_certificate&#x27;: &#x27;&#x27;, &#x27;cronjob&#x27;: False, &#x27;numthreads&#x27;: None, &#x27;quiet&#x27;: False, &#x27;import_models&#x27;: False, &#x27;timeout&#x27;: 10, &#x27;plain&#x27;: False, &#x27;nobanner&#x27;: False}&gt;</div></td></tr><tr><td style="font-weight:bold;vertical-align:top;">db_sessions</td><td style="vertical-align:top;">:</td><td><div>set([])</div></td></tr><tr><td style="font-weight:bold;vertical-align:top;">debugging</td><td style="vertical-align:top;">:</td><td><div>False</div></td></tr><tr><td style="font-weight:bold;vertical-align:top;">gluon_parent</td><td style="vertical-align:top;">:</td><td><div>D:\\Desenvolvimento\\web2py</div></td></tr><tr><td style="font-weight:bold;vertical-align:top;">is_jython</td><td style="vertical-align:top;">:</td><td><div>False</div></td></tr><tr><td style="font-weight:bold;vertical-align:top;">is_pypy</td><td style="vertical-align:top;">:</td><td><div>False</div></td></tr><tr><td style="font-weight:bold;vertical-align:top;">is_source</td><td style="vertical-align:top;">:</td><td><div>True</div></td></tr><tr><td style="font-weight:bold;vertical-align:top;">local_hosts</td><td style="vertical-align:top;">:</td><td><div><table><tr><td><div>192.168.71.1</div></td></tr><tr><td><div>fe80::4023:9900:3196:7ccb%5</div></td></tr><tr><td><div>fe80::6dc3:bcf7:daee:374c%7</div></td></tr><tr><td><div>::ffff:127.0.0.1</div></td></tr><tr><td><div>MOHAMED-DTIC</div></td></tr><tr><td><div>10.129.18.33</div></td></tr><tr><td><div>192.168.16.1</div></td></tr><tr><td><div>::1</div></td></tr><tr><td><div>MOHAMED-DTIC.unirio.br</div></td></tr><tr><td><div>127.0.0.1</div></td></tr><tr><td><div>fe80::4932:49bd:49c6:6ebe%3</div></td></tr></table></div></td></tr><tr><td style="font-weight:bold;vertical-align:top;">web2py_version</td><td style="vertical-align:top;">:</td><td><div>2.9.11-stable+timestamp.2014.09.15.23.35.11</div></td></tr></table></div></td></tr><tr><td style="font-weight:bold;vertical-align:top;">is_https</td><td style="vertical-align:top;">:</td><td><div>False</div></td></tr><tr><td style="font-weight:bold;vertical-align:top;">is_local</td><td style="vertical-align:top;">:</td><td><div>True</div></td></tr><tr><td style="font-weight:bold;vertical-align:top;">is_restful</td><td style="vertical-align:top;">:</td><td><div>False</div></td></tr><tr><td style="font-weight:bold;vertical-align:top;">is_sheduler</td><td style="vertical-align:top;">:</td><td><div>None</div></td></tr><tr><td style="font-weight:bold;vertical-align:top;">is_shell</td><td style="vertical-align:top;">:</td><td><div>None</div></td></tr><tr><td style="font-weight:bold;vertical-align:top;">now</td><td style="vertical-align:top;">:</td><td><div>datetime.datetime(2014, 12, 29, 8, 46, 19, 16000)</div></td></tr><tr><td style="font-weight:bold;vertical-align:top;">raw_args</td><td style="vertical-align:top;">:</td><td><div></div></td></tr><tr><td style="font-weight:bold;vertical-align:top;">raw_extension</td><td style="vertical-align:top;">:</td><td><div>None</div></td></tr><tr><td style="font-weight:bold;vertical-align:top;">url</td><td style="vertical-align:top;">:</td><td><div>/anestesia/pagina_buscar/index</div></td></tr><tr><td style="font-weight:bold;vertical-align:top;">utcnow</td><td style="vertical-align:top;">:</td><td><div>datetime.datetime(2014, 12, 29, 10, 46, 19, 16000)</div></td></tr><tr><td style="font-weight:bold;vertical-align:top;">uuid</td><td style="vertical-align:top;">:</td><td><div>anestesia/127.0.0.1.2014-12-29.08-46-19.7defab71-d669-4e93-898c-d234b102a2c5</div></td></tr><tr><td style="font-weight:bold;vertical-align:top;">wsgi</td><td style="vertical-align:top;">:</td><td><div>&lt;gluon.main.LazyWSGI object at 0x0817C150&gt;</div></td></tr></table></div>'
tRp70
sS'frames'
p71
(lp72
(dp73
S'file'
p74
S'D:\\Desenvolvimento\\web2py\\gluon\\restricted.py'
p75
sS'dump'
p76
(dp77
S'code'
p78
S'"__author__ = \'Mohamed\'\\nimport sys\\nimport json\\nim..._linhas)\\n\\nresponse._vars=response._caller(index)\\n"'
p79
sS'layer'
p80
S"r'D:\\Desenvolvimento\\web2py\\applications\\anestesia\\controllers/pagina_buscar.py'"
p81
sS'global compile2'
p82
S'<function compile2>'
p83
sS'ccode'
p84
S'undefined'
p85
ssS'lnum'
p86
I223
sS'lines'
p87
(dp88
I224
S'        exec ccode in environment'
p89
sI225
S'    except HTTP:'
p90
sI226
S'        raise'
p91
sI227
S'    except RestrictedError:'
p92
sI218
S"    environment['__name__'] = '__restricted__'"
p93
sI219
S'    try:'
p94
sI220
S'        if isinstance(code, types.CodeType):'
p95
sI221
S'            ccode = code'
p96
sI222
S'        else:'
p97
sI223
S'            ccode = compile2(code, layer)'
p98
ssS'call'
p99
S'(code="__author__ = \'Mohamed\'\\nimport sys\\nimport json\\nim..._linhas)\\n\\nresponse._vars=response._caller(index)\\n", environment={\'A\': <class \'gluon.html.A\'>, \'ANY_OF\': <class \'gluon.validators.ANY_OF\'>, \'ASSIGNJS\': <function ASSIGNJS>, \'Auth\': <class \'gluon.tools.Auth\'>, \'B\': <class \'gluon.html.B\'>, \'BEAUTIFY\': <class \'gluon.html.BEAUTIFY\'>, \'BODY\': <class \'gluon.html.BODY\'>, \'BR\': <class \'gluon.html.BR\'>, \'BUTTON\': <class \'gluon.html.BUTTON\'>, \'CAT\': <class \'gluon.html.CAT\'>, ...}, layer=r\'D:\\Desenvolvimento\\web2py\\applications\\anestesia\\controllers/pagina_buscar.py\')'
p100
sS'func'
p101
S'restricted'
p102
sa(dp103
g74
S'D:\\Desenvolvimento\\web2py\\gluon\\restricted.py'
p104
sg76
(dp105
S'builtincompile'
p106
S'<built-in function compile>'
p107
sS'code'
p108
S'"__author__ = \'Mohamed\'\\nimport sys\\nimport json\\nim..._linhas)\\n\\nresponse._vars=response._caller(index)\\n"'
p109
sS'code.rstrip'
p110
S'<built-in method rstrip of str object>'
p111
sS').replace'
p112
g85
sS'layer'
p113
S"r'D:\\Desenvolvimento\\web2py\\applications\\anestesia\\controllers/pagina_buscar.py'"
p114
ssg86
I206
sg87
(dp115
I201
S'def compile2(code, layer):'
p116
sI202
S'    """'
p117
sI203
S"    The ``+'\\\\n'`` is necessary else compile fails when code ends in a comment."
p118
sI204
S'    """'
p119
sI205
S''
sI206
S"    return compile(code.rstrip().replace('\\r\\n', '\\n') + '\\n', layer, 'exec')"
p120
sI207
S''
sI208
S''
sI209
S"def restricted(code, environment=None, layer='Unknown'):"
p121
sI210
S'    """'
p122
ssg99
S'(code="__author__ = \'Mohamed\'\\nimport sys\\nimport json\\nim..._linhas)\\n\\nresponse._vars=response._caller(index)\\n", layer=r\'D:\\Desenvolvimento\\web2py\\applications\\anestesia\\controllers/pagina_buscar.py\')'
p123
sg101
S'compile2'
p124
sasS'pyver'
p125
S'Python 2.7: C:\\Python27\\python.exe (prefix: C:\\Python27)'
p126
sS'session'
p127
g69
(S's\x1a\x00\x00\x00<div><table></table></div>'
tRp128
sS'etype'
p129
S"<type 'exceptions.SyntaxError'>"
p130
sS'date'
p131
S'Mon Dec 29 08:46:19 2014'
p132
sS'response'
p133
g69
(S's\xe62\x00\x00<div><table><tr><td style="font-weight:bold;vertical-align:top;">body</td><td style="vertical-align:top;">:</td><td><div>&lt;cStringIO.StringO object at 0x08C131C0&gt;</div></td></tr><tr><td style="font-weight:bold;vertical-align:top;">cookies</td><td style="vertical-align:top;">:</td><td><div><table><tr><td style="font-weight:bold;vertical-align:top;">session_id_anestesia</td><td style="vertical-align:top;">:</td><td><div>127.0.0.1-2323f882-280a-40ac-baa0-fc1d4b833d0a<table><tr><td style="font-weight:bold;vertical-align:top;">comment</td><td style="vertical-align:top;">:</td><td><div></div></td></tr><tr><td style="font-weight:bold;vertical-align:top;">domain</td><td style="vertical-align:top;">:</td><td><div></div></td></tr><tr><td style="font-weight:bold;vertical-align:top;">expires</td><td style="vertical-align:top;">:</td><td><div></div></td></tr><tr><td style="font-weight:bold;vertical-align:top;">httponly</td><td style="vertical-align:top;">:</td><td><div></div></td></tr><tr><td style="font-weight:bold;vertical-align:top;">max-age</td><td style="vertical-align:top;">:</td><td><div></div></td></tr><tr><td style="font-weight:bold;vertical-align:top;">path</td><td style="vertical-align:top;">:</td><td><div>/</div></td></tr><tr><td style="font-weight:bold;vertical-align:top;">secure</td><td style="vertical-align:top;">:</td><td><div></div></td></tr><tr><td style="font-weight:bold;vertical-align:top;">version</td><td style="vertical-align:top;">:</td><td><div></div></td></tr></table></div></td></tr></table></div></td></tr><tr><td style="font-weight:bold;vertical-align:top;">delimiters</td><td style="vertical-align:top;">:</td><td><div><table><tr><td><div>{{</div></td></tr><tr><td><div>}}</div></td></tr></table></div></td></tr><tr><td style="font-weight:bold;vertical-align:top;">files</td><td style="vertical-align:top;">:</td><td><div><table></table></div></td></tr><tr><td style="font-weight:bold;vertical-align:top;">flash</td><td style="vertical-align:top;">:</td><td><div></div></td></tr><tr><td style="font-weight:bold;vertical-align:top;">form_label_separator</td><td style="vertical-align:top;">:</td><td><div>: </div></td></tr><tr><td style="font-weight:bold;vertical-align:top;">formstyle</td><td style="vertical-align:top;">:</td><td><div>table3cols</div></td></tr><tr><td style="font-weight:bold;vertical-align:top;">generic_patterns</td><td style="vertical-align:top;">:</td><td><div><table><tr><td><div>*</div></td></tr></table></div></td></tr><tr><td style="font-weight:bold;vertical-align:top;">google_analytics_id</td><td style="vertical-align:top;">:</td><td><div>None</div></td></tr><tr><td style="font-weight:bold;vertical-align:top;">headers</td><td style="vertical-align:top;">:</td><td><div><table><tr><td style="font-weight:bold;vertical-align:top;">X-Powered-By</td><td style="vertical-align:top;">:</td><td><div>web2py</div></td></tr></table></div></td></tr><tr><td style="font-weight:bold;vertical-align:top;">logo</td><td style="vertical-align:top;">:</td><td><div><a class="brand" href="http://www.web2py.com/"><b>web<span>2</span>py</b>&trade;&nbsp;</a></div></td></tr><tr><td style="font-weight:bold;vertical-align:top;">menu</td><td style="vertical-align:top;">:</td><td><div><table><tr><td><div><table><tr><td><div>Principal</div></td></tr><tr><td><div>False</div></td></tr><tr><td><div>/anestesia/default/index</div></td></tr><tr><td><div><table></table></div></td></tr></table></div></td></tr><tr><td><div><table><tr><td><div><span class="highlighted">web2py</span></div></td></tr><tr><td><div>False</div></td></tr><tr><td><div>http://web2py.com</div></td></tr><tr><td><div><table><tr><td><div><table><tr><td><div>Meus sites</div></td></tr><tr><td><div>False</div></td></tr><tr><td><div>/admin/default/site</div></td></tr></table></div></td></tr><tr><td><div><table><tr><td><div>Esta aplica\xc3\xa7\xc3\xa3o</div></td></tr><tr><td><div>False</div></td></tr><tr><td><div>/admin/default/design/anestesia</div></td></tr><tr><td><div>[(&lt;lazyT &#x27;Controller&#x27;&gt;, False, &#x27;/admin/default/edit/anestesia/controllers/pagina_buscar.py&#x27;), (&lt;lazyT &#x27;View&#x27;&gt;, False, &#x27;/admin/default/edit/anestesia/views/pagina_buscar/index.html&#x27;), (&lt;lazyT &#x27;Layout&#x27;&gt;, False, &#x27;/admin/default/edit/anestesia/views/layout.html&#x27;), (&lt;lazyT &#x27;Stylesheet&#x27;&gt;, False, &#x27;/admin/default/edit/anestesia/static/css/web2py.css&#x27;), (&lt;lazyT &#x27;DB Model&#x27;&gt;, False, &#x27;/admin/default/edit/anestesia/models/db.py&#x27;), (&lt;lazyT &#x27;Menu Model&#x27;&gt;, False, &#x27;/admin/default/edit/anestesia/models/menu.py&#x27;), (&lt;lazyT &#x27;Database&#x27;&gt;, False, &#x27;/anestesia/appadmin/index&#x27;), (&lt;lazyT &#x27;Errors&#x27;&gt;, False, &#x27;/admin/default/errors/anestesia&#x27;), (&lt;lazyT &#x27;About&#x27;&gt;, False, &#x27;/admin/default/about/anestesia&#x27;)]</div></td></tr></table></div></td></tr><tr><td><div><table><tr><td><div>web2py.com</div></td></tr><tr><td><div>False</div></td></tr><tr><td><div>http://www.web2py.com</div></td></tr><tr><td><div>[(&lt;lazyT &#x27;Download&#x27;&gt;, False, &#x27;http://www.web2py.com/examples/default/download&#x27;), (&lt;lazyT &#x27;Support&#x27;&gt;, False, &#x27;http://www.web2py.com/examples/default/support&#x27;), (&lt;lazyT &#x27;Demo&#x27;&gt;, False, &#x27;http://web2py.com/demo_admin&#x27;), (&lt;lazyT &#x27;Quick Examples&#x27;&gt;, False, &#x27;http://web2py.com/examples/default/examples&#x27;), (&lt;lazyT &#x27;FAQ&#x27;&gt;, False, &#x27;http://web2py.com/AlterEgo&#x27;), (&lt;lazyT &#x27;Videos&#x27;&gt;, False, &#x27;http://www.web2py.com/examples/default/videos/&#x27;), (&lt;lazyT &#x27;Free Applications&#x27;&gt;, False, &#x27;http://web2py.com/appliances&#x27;), (&lt;lazyT &#x27;Plugins&#x27;&gt;, False, &#x27;http://web2py.com/plugins&#x27;), (&lt;lazyT &#x27;Layouts&#x27;&gt;, False, &#x27;http://web2py.com/layouts&#x27;), (&lt;lazyT &#x27;Recipes&#x27;&gt;, False, &#x27;http://web2pyslices.com/&#x27;), (&lt;lazyT &#x27;Semantic&#x27;&gt;, False, &#x27;http://web2py.com/semantic&#x27;)]</div></td></tr></table></div></td></tr><tr><td><div><table><tr><td><div>Documenta\xc3\xa7\xc3\xa3o</div></td></tr><tr><td><div>False</div></td></tr><tr><td><div>http://www.web2py.com/book</div></td></tr><tr><td><div>[(&lt;lazyT &#x27;Preface&#x27;&gt;, False, &#x27;http://www.web2py.com/book/default/chapter/00&#x27;), (&lt;lazyT &#x27;Introduction&#x27;&gt;, False, &#x27;http://www.web2py.com/book/default/chapter/01&#x27;), (&lt;lazyT &#x27;Python&#x27;&gt;, False, &#x27;http://www.web2py.com/book/default/chapter/02&#x27;), (&lt;lazyT &#x27;Overview&#x27;&gt;, False, &#x27;http://www.web2py.com/book/default/chapter/03&#x27;), (&lt;lazyT &#x27;The Core&#x27;&gt;, False, &#x27;http://www.web2py.com/book/default/chapter/04&#x27;), (&lt;lazyT &#x27;The Views&#x27;&gt;, False, &#x27;http://www.web2py.com/book/default/chapter/05&#x27;), (&lt;lazyT &#x27;Database&#x27;&gt;, False, &#x27;http://www.web2py.com/book/default/chapter/06&#x27;), (&lt;lazyT &#x27;Forms and Validators&#x27;&gt;, False, &#x27;http://www.web2py.com/book/default/chapter/07&#x27;), (&lt;lazyT &#x27;Email and SMS&#x27;&gt;, False, &#x27;http://www.web2py.com/book/default/chapter/08&#x27;), (&lt;lazyT &#x27;Access Control&#x27;&gt;, False, &#x27;http://www.web2py.com/book/default/chapter/09&#x27;), (&lt;lazyT &#x27;Services&#x27;&gt;, False, &#x27;http://www.web2py.com/book/default/chapter/10&#x27;), (&lt;lazyT &#x27;Ajax Recipes&#x27;&gt;, False, &#x27;http://www.web2py.com/book/default/chapter/11&#x27;), (&lt;lazyT &#x27;Components and Plugins&#x27;&gt;, False, &#x27;http://www.web2py.com/book/default/chapter/12&#x27;), (&lt;lazyT &#x27;Deployment Recipes&#x27;&gt;, False, &#x27;http://www.web2py.com/book/default/chapter/13&#x27;), (&lt;lazyT &#x27;Other Recipes&#x27;&gt;, False, &#x27;http://www.web2py.com/book/default/chapter/14&#x27;), (&lt;lazyT &#x27;Buy this book&#x27;&gt;, False, &#x27;http://stores.lulu.com/web2py&#x27;)]</div></td></tr></table></div></td></tr><tr><td><div><table><tr><td><div>Comunidade</div></td></tr><tr><td><div>False</div></td></tr><tr><td><div>None</div></td></tr><tr><td><div>[(&lt;lazyT &#x27;Groups&#x27;&gt;, False, &#x27;http://www.web2py.com/examples/default/usergroups&#x27;), (&lt;lazyT &#x27;Twitter&#x27;&gt;, False, &#x27;http://twitter.com/web2py&#x27;), (&lt;lazyT &#x27;Live Chat&#x27;&gt;, False, &#x27;http://webchat.freenode.net/?channels=web2py&#x27;)]</div></td></tr></table></div></td></tr><tr><td><div><table><tr><td><div>Plugins</div></td></tr><tr><td><div>False</div></td></tr><tr><td><div>None</div></td></tr><tr><td><div>[(&#x27;plugin_wiki&#x27;, False, &#x27;http://web2py.com/examples/default/download&#x27;), (&lt;lazyT &#x27;Other Plugins&#x27;&gt;, False, &#x27;http://web2py.com/plugins&#x27;), (&lt;lazyT &#x27;Layout Plugins&#x27;&gt;, False, &#x27;http://web2py.com/layouts&#x27;)]</div></td></tr></table></div></td></tr></table></div></td></tr></table></div></td></tr></table></div></td></tr><tr><td style="font-weight:bold;vertical-align:top;">meta</td><td style="vertical-align:top;">:</td><td><div><table><tr><td style="font-weight:bold;vertical-align:top;">author</td><td style="vertical-align:top;">:</td><td><div>Your Name &lt;you@example.com&gt;</div></td></tr><tr><td style="font-weight:bold;vertical-align:top;">generator</td><td style="vertical-align:top;">:</td><td><div>Web2py Web Framework</div></td></tr><tr><td style="font-weight:bold;vertical-align:top;">keywords</td><td style="vertical-align:top;">:</td><td><div>web2py, python, framework</div></td></tr></table></div></td></tr><tr><td style="font-weight:bold;vertical-align:top;">models_to_run</td><td style="vertical-align:top;">:</td><td><div><table><tr><td><div>^\\w+\\.py$</div></td></tr><tr><td><div>^pagina_buscar/\\w+\\.py$</div></td></tr><tr><td><div>^pagina_buscar/index/\\w+\\.py$</div></td></tr></table></div></td></tr><tr><td style="font-weight:bold;vertical-align:top;">postprocessing</td><td style="vertical-align:top;">:</td><td><div><table></table></div></td></tr><tr><td style="font-weight:bold;vertical-align:top;">session_client</td><td style="vertical-align:top;">:</td><td><div>127.0.0.1</div></td></tr><tr><td style="font-weight:bold;vertical-align:top;">session_cookie_compression_level</td><td style="vertical-align:top;">:</td><td><div>None</div></td></tr><tr><td style="font-weight:bold;vertical-align:top;">session_cookie_expires</td><td style="vertical-align:top;">:</td><td><div>None</div></td></tr><tr><td style="font-weight:bold;vertical-align:top;">session_cookie_key</td><td style="vertical-align:top;">:</td><td><div>None</div></td></tr><tr><td style="font-weight:bold;vertical-align:top;">session_data_name</td><td style="vertical-align:top;">:</td><td><div>session_data_anestesia</div></td></tr><tr><td style="font-weight:bold;vertical-align:top;">session_file</td><td style="vertical-align:top;">:</td><td><div>&lt;open file &#x27;D:\\Desenvolvimento\\web2py\\applications\\anestesia\\sessions\\16d\\15e\\127.0.0.1-2323f882-280a-40ac-baa0-fc1d4b833d0a&#x27;, mode &#x27;rb+&#x27; at 0x08EAE7B0&gt;</div></td></tr><tr><td style="font-weight:bold;vertical-align:top;">session_filename</td><td style="vertical-align:top;">:</td><td><div>D:\\Desenvolvimento\\web2py\\applications\\anestesia\\sessions\\127.0.0.1-2323f882-280a-40ac-baa0-fc1d4b833d0a</div></td></tr><tr><td style="font-weight:bold;vertical-align:top;">session_hash</td><td style="vertical-align:top;">:</td><td><div>71e968cb91e8218a22277cb3a3d2edf5</div></td></tr><tr><td style="font-weight:bold;vertical-align:top;">session_id</td><td style="vertical-align:top;">:</td><td><div>127.0.0.1-2323f882-280a-40ac-baa0-fc1d4b833d0a</div></td></tr><tr><td style="font-weight:bold;vertical-align:top;">session_id_name</td><td style="vertical-align:top;">:</td><td><div>session_id_anestesia</div></td></tr><tr><td style="font-weight:bold;vertical-align:top;">session_locked</td><td style="vertical-align:top;">:</td><td><div>True</div></td></tr><tr><td style="font-weight:bold;vertical-align:top;">session_masterapp</td><td style="vertical-align:top;">:</td><td><div>anestesia</div></td></tr><tr><td style="font-weight:bold;vertical-align:top;">session_new</td><td style="vertical-align:top;">:</td><td><div>False</div></td></tr><tr><td style="font-weight:bold;vertical-align:top;">session_storage_type</td><td style="vertical-align:top;">:</td><td><div>file</div></td></tr><tr><td style="font-weight:bold;vertical-align:top;">status</td><td style="vertical-align:top;">:</td><td><div>200</div></td></tr><tr><td style="font-weight:bold;vertical-align:top;">subtitle</td><td style="vertical-align:top;">:</td><td><div></div></td></tr><tr><td style="font-weight:bold;vertical-align:top;">title</td><td style="vertical-align:top;">:</td><td><div>Anestesia</div></td></tr><tr><td style="font-weight:bold;vertical-align:top;">view</td><td style="vertical-align:top;">:</td><td><div>pagina_buscar/index.html</div></td></tr></table></div>'
tRp134
sS'locals'
p135
(dp136
g4
S"r'D:\\Desenvolvimento\\web2py\\applications\\anestesia\\controllers/pagina_buscar.py'"
p137
sg6
S'"__author__ = \'Mohamed\'\\nimport sys\\nimport json\\nim..._linhas)\\n\\nresponse._vars=response._caller(index)\\n"'
p138
sssS'traceback'
p139
S'Traceback (most recent call last):\n  File "D:\\Desenvolvimento\\web2py\\gluon\\restricted.py", line 223, in restricted\n    ccode = compile2(code, layer)\n  File "D:\\Desenvolvimento\\web2py\\gluon\\restricted.py", line 206, in compile2\n    return compile(code.rstrip().replace(\'\\r\\n\', \'\\n\') + \'\\n\', layer, \'exec\')\n  File "D:\\Desenvolvimento\\web2py\\applications\\anestesia\\controllers/pagina_buscar.py", line 513\n    ),\n    ^\nSyntaxError: invalid syntax\n'
p140
s.