(dp1
S'output'
p2
S'<class \'gluon.contrib.pg8000.errors.ProgrammingError\'> (\'ERROR\', \'42601\', \'syntax error at or near ";"\')'
p3
sS'layer'
p4
S'D:\\Desenvolvimento\\web2py\\applications\\anestesia\\controllers/pagina_buscar.py'
p5
sS'code'
p6
S"__author__ = 'Mohamed'\n\n\ndef gerar_campos_busca():\n    campos = FORM(\n        DIV(_id='div_campos_busca_geral',\n            *FIELDSET(\n                LEGEND(_id='lgd_campos_busca_geral',\n                       *'BUSCA'),\n                'Nome: ',\n                INPUT(_type='text', _id='nome_busca', _name='nome_busca'),\n                'Nr Registro: ',\n                INPUT(_type='text', _id='nr_registro_busca'),\n                BR(),\n                INPUT(_type='submit', _value='BUSCAR'),\n            )\n        )\n    )\n    return campos\n\n\ndef consulta(nome):\n    query = db(db.paciente.nome == nome).select()\n    return query\n\ndef conta_consulta(nome):\n    query = db(db.paciente.nome == nome).select()\n    nr_linhas = db(query).count()\n    return nr_linhas\n\n\ndef index():\n    myconsulta = ''\n    dados = ''\n    linhas = ''\n    busca = gerar_campos_busca()\n    if busca.accepts(request, session):\n        linhas = consulta(request.vars.nome_busca)\n\n    nr_linhas = conta_consulta(request.vars.nome_busca)\n\n    return dict(busca=busca, linhas=linhas, nr_linhas=nr_linhas)\n\nresponse._vars=response._caller(index)\n"
p7
sS'snapshot'
p8
(dp9
S'exception'
p10
(dp11
S'__module__'
p12
S"'gluon.contrib.pg8000.errors'"
p13
sS'__getslice__'
p14
S"<method-wrapper '__getslice__' of ProgrammingError object>"
p15
sS'__str__'
p16
S"<method-wrapper '__str__' of ProgrammingError object>"
p17
sS'__reduce__'
p18
S'<built-in method __reduce__ of ProgrammingError object>'
p19
sS'__dict__'
p20
S'{}'
p21
sS'__sizeof__'
p22
S'<built-in method __sizeof__ of ProgrammingError object>'
p23
sS'__weakref__'
p24
S'None'
p25
sS'__init__'
p26
S"<method-wrapper '__init__' of ProgrammingError object>"
p27
sS'__setattr__'
p28
S"<method-wrapper '__setattr__' of ProgrammingError object>"
p29
sS'__reduce_ex__'
p30
S'<built-in method __reduce_ex__ of ProgrammingError object>'
p31
sS'__new__'
p32
S'<built-in method __new__ of type object>'
p33
sS'__format__'
p34
S'<built-in method __format__ of ProgrammingError object>'
p35
sS'__class__'
p36
S"<class 'gluon.contrib.pg8000.errors.ProgrammingError'>"
p37
sS'__doc__'
p38
S'None'
p39
sS'__getitem__'
p40
S"<method-wrapper '__getitem__' of ProgrammingError object>"
p41
sS'__setstate__'
p42
S'<built-in method __setstate__ of ProgrammingError object>'
p43
sS'__getattribute__'
p44
S"<method-wrapper '__getattribute__' of ProgrammingError object>"
p45
sS'args'
p46
S'(\'ERROR\', \'42601\', \'syntax error at or near ";"\')'
p47
sS'__subclasshook__'
p48
S'<built-in method __subclasshook__ of type object>'
p49
sS'__unicode__'
p50
S'<built-in method __unicode__ of ProgrammingError object>'
p51
sS'__delattr__'
p52
S"<method-wrapper '__delattr__' of ProgrammingError object>"
p53
sS'__repr__'
p54
S"<method-wrapper '__repr__' of ProgrammingError object>"
p55
sS'__hash__'
p56
S"<method-wrapper '__hash__' of ProgrammingError object>"
p57
ssS'evalue'
p58
S'(\'ERROR\', \'42601\', \'syntax error at or near ";"\')'
p59
sS'request'
p60
cgluon.html
XML_unpickle
p61
(S's\x87\x8f\x00\x00<div><table><tr><td style="font-weight:bold;vertical-align:top;">ajax</td><td style="vertical-align:top;">:</td><td><div>False</div></td></tr><tr><td style="font-weight:bold;vertical-align:top;">application</td><td style="vertical-align:top;">:</td><td><div>anestesia</div></td></tr><tr><td style="font-weight:bold;vertical-align:top;">args</td><td style="vertical-align:top;">:</td><td><div><table></table></div></td></tr><tr><td style="font-weight:bold;vertical-align:top;">cid</td><td style="vertical-align:top;">:</td><td><div>None</div></td></tr><tr><td style="font-weight:bold;vertical-align:top;">client</td><td style="vertical-align:top;">:</td><td><div>127.0.0.1</div></td></tr><tr><td style="font-weight:bold;vertical-align:top;">controller</td><td style="vertical-align:top;">:</td><td><div>pagina_buscar</div></td></tr><tr><td style="font-weight:bold;vertical-align:top;">cookies</td><td style="vertical-align:top;">:</td><td><div><table><tr><td style="font-weight:bold;vertical-align:top;">session_data_examples</td><td style="vertical-align:top;">:</td><td><div>a632629af9fb55f9fa76a3571908672d:sN1Elcivdjn9AEoZt6p9CH1OYrd76hTOUSbiLoxyR_yP3VUKl1SZjORiT_6q2TsxL5KRFbKY7XlUqLQ8qUQ9fdKSc6SQwqz_hs_xRWB1svIa4GO-qZqNh0xkugb0opWHtCh3BhX5xMfeMOBP2L6lUMmh1yUcuvaOH6visCdSEsDn4ByzGUN5ylEsNFejbxELSaAOwlYRb4roFr9TXARwSQ0S6u7zw0eItm2g8Z9bm7H55aH4W870LM4wPH3cOGqzJmQwzbOivkXCtr0z5-WQ_HDnS1WI3ZTDruG4FQa_MF9avDDeu6JZ8vLf9CeyaUOT<table><tr><td style="font-weight:bold;vertical-align:top;">comment</td><td style="vertical-align:top;">:</td><td><div></div></td></tr><tr><td style="font-weight:bold;vertical-align:top;">domain</td><td style="vertical-align:top;">:</td><td><div></div></td></tr><tr><td style="font-weight:bold;vertical-align:top;">expires</td><td style="vertical-align:top;">:</td><td><div></div></td></tr><tr><td style="font-weight:bold;vertical-align:top;">httponly</td><td style="vertical-align:top;">:</td><td><div></div></td></tr><tr><td style="font-weight:bold;vertical-align:top;">max-age</td><td style="vertical-align:top;">:</td><td><div></div></td></tr><tr><td style="font-weight:bold;vertical-align:top;">path</td><td style="vertical-align:top;">:</td><td><div></div></td></tr><tr><td style="font-weight:bold;vertical-align:top;">secure</td><td style="vertical-align:top;">:</td><td><div></div></td></tr><tr><td style="font-weight:bold;vertical-align:top;">version</td><td style="vertical-align:top;">:</td><td><div></div></td></tr></table></div></td></tr><tr><td style="font-weight:bold;vertical-align:top;">session_id_admin</td><td style="vertical-align:top;">:</td><td><div>127.0.0.1-8821195d-d852-402b-9210-e24638d99d35<table><tr><td style="font-weight:bold;vertical-align:top;">comment</td><td style="vertical-align:top;">:</td><td><div></div></td></tr><tr><td style="font-weight:bold;vertical-align:top;">domain</td><td style="vertical-align:top;">:</td><td><div></div></td></tr><tr><td style="font-weight:bold;vertical-align:top;">expires</td><td style="vertical-align:top;">:</td><td><div></div></td></tr><tr><td style="font-weight:bold;vertical-align:top;">httponly</td><td style="vertical-align:top;">:</td><td><div></div></td></tr><tr><td style="font-weight:bold;vertical-align:top;">max-age</td><td style="vertical-align:top;">:</td><td><div></div></td></tr><tr><td style="font-weight:bold;vertical-align:top;">path</td><td style="vertical-align:top;">:</td><td><div></div></td></tr><tr><td style="font-weight:bold;vertical-align:top;">secure</td><td style="vertical-align:top;">:</td><td><div></div></td></tr><tr><td style="font-weight:bold;vertical-align:top;">version</td><td style="vertical-align:top;">:</td><td><div></div></td></tr></table></div></td></tr><tr><td style="font-weight:bold;vertical-align:top;">session_id_anestesia</td><td style="vertical-align:top;">:</td><td><div>127.0.0.1-f3e79e0a-00f4-4121-a50b-cf8a4b1af40b<table><tr><td style="font-weight:bold;vertical-align:top;">comment</td><td style="vertical-align:top;">:</td><td><div></div></td></tr><tr><td style="font-weight:bold;vertical-align:top;">domain</td><td style="vertical-align:top;">:</td><td><div></div></td></tr><tr><td style="font-weight:bold;vertical-align:top;">expires</td><td style="vertical-align:top;">:</td><td><div></div></td></tr><tr><td style="font-weight:bold;vertical-align:top;">httponly</td><td style="vertical-align:top;">:</td><td><div></div></td></tr><tr><td style="font-weight:bold;vertical-align:top;">max-age</td><td style="vertical-align:top;">:</td><td><div></div></td></tr><tr><td style="font-weight:bold;vertical-align:top;">path</td><td style="vertical-align:top;">:</td><td><div></div></td></tr><tr><td style="font-weight:bold;vertical-align:top;">secure</td><td style="vertical-align:top;">:</td><td><div></div></td></tr><tr><td style="font-weight:bold;vertical-align:top;">version</td><td style="vertical-align:top;">:</td><td><div></div></td></tr></table></div></td></tr><tr><td style="font-weight:bold;vertical-align:top;">session_id_controle</td><td style="vertical-align:top;">:</td><td><div>127.0.0.1-8d5cd6e4-1136-46a7-8777-e2dc8b975cc3<table><tr><td style="font-weight:bold;vertical-align:top;">comment</td><td style="vertical-align:top;">:</td><td><div></div></td></tr><tr><td style="font-weight:bold;vertical-align:top;">domain</td><td style="vertical-align:top;">:</td><td><div></div></td></tr><tr><td style="font-weight:bold;vertical-align:top;">expires</td><td style="vertical-align:top;">:</td><td><div></div></td></tr><tr><td style="font-weight:bold;vertical-align:top;">httponly</td><td style="vertical-align:top;">:</td><td><div></div></td></tr><tr><td style="font-weight:bold;vertical-align:top;">max-age</td><td style="vertical-align:top;">:</td><td><div></div></td></tr><tr><td style="font-weight:bold;vertical-align:top;">path</td><td style="vertical-align:top;">:</td><td><div></div></td></tr><tr><td style="font-weight:bold;vertical-align:top;">secure</td><td style="vertical-align:top;">:</td><td><div></div></td></tr><tr><td style="font-weight:bold;vertical-align:top;">version</td><td style="vertical-align:top;">:</td><td><div></div></td></tr></table></div></td></tr><tr><td style="font-weight:bold;vertical-align:top;">session_id_examples</td><td style="vertical-align:top;">:</td><td><div>True<table><tr><td style="font-weight:bold;vertical-align:top;">comment</td><td style="vertical-align:top;">:</td><td><div></div></td></tr><tr><td style="font-weight:bold;vertical-align:top;">domain</td><td style="vertical-align:top;">:</td><td><div></div></td></tr><tr><td style="font-weight:bold;vertical-align:top;">expires</td><td style="vertical-align:top;">:</td><td><div></div></td></tr><tr><td style="font-weight:bold;vertical-align:top;">httponly</td><td style="vertical-align:top;">:</td><td><div></div></td></tr><tr><td style="font-weight:bold;vertical-align:top;">max-age</td><td style="vertical-align:top;">:</td><td><div></div></td></tr><tr><td style="font-weight:bold;vertical-align:top;">path</td><td style="vertical-align:top;">:</td><td><div></div></td></tr><tr><td style="font-weight:bold;vertical-align:top;">secure</td><td style="vertical-align:top;">:</td><td><div></div></td></tr><tr><td style="font-weight:bold;vertical-align:top;">version</td><td style="vertical-align:top;">:</td><td><div></div></td></tr></table></div></td></tr><tr><td style="font-weight:bold;vertical-align:top;">session_id_formulario</td><td style="vertical-align:top;">:</td><td><div>127.0.0.1-ad3203e2-ca0b-480a-bc23-84d358ff6197<table><tr><td style="font-weight:bold;vertical-align:top;">comment</td><td style="vertical-align:top;">:</td><td><div></div></td></tr><tr><td style="font-weight:bold;vertical-align:top;">domain</td><td style="vertical-align:top;">:</td><td><div></div></td></tr><tr><td style="font-weight:bold;vertical-align:top;">expires</td><td style="vertical-align:top;">:</td><td><div></div></td></tr><tr><td style="font-weight:bold;vertical-align:top;">httponly</td><td style="vertical-align:top;">:</td><td><div></div></td></tr><tr><td style="font-weight:bold;vertical-align:top;">max-age</td><td style="vertical-align:top;">:</td><td><div></div></td></tr><tr><td style="font-weight:bold;vertical-align:top;">path</td><td style="vertical-align:top;">:</td><td><div></div></td></tr><tr><td style="font-weight:bold;vertical-align:top;">secure</td><td style="vertical-align:top;">:</td><td><div></div></td></tr><tr><td style="font-weight:bold;vertical-align:top;">version</td><td style="vertical-align:top;">:</td><td><div></div></td></tr></table></div></td></tr><tr><td style="font-weight:bold;vertical-align:top;">session_id_myapp</td><td style="vertical-align:top;">:</td><td><div>127.0.0.1-dd8a077d-66b1-4b2d-808d-5213f9618b8a<table><tr><td style="font-weight:bold;vertical-align:top;">comment</td><td style="vertical-align:top;">:</td><td><div></div></td></tr><tr><td style="font-weight:bold;vertical-align:top;">domain</td><td style="vertical-align:top;">:</td><td><div></div></td></tr><tr><td style="font-weight:bold;vertical-align:top;">expires</td><td style="vertical-align:top;">:</td><td><div></div></td></tr><tr><td style="font-weight:bold;vertical-align:top;">httponly</td><td style="vertical-align:top;">:</td><td><div></div></td></tr><tr><td style="font-weight:bold;vertical-align:top;">max-age</td><td style="vertical-align:top;">:</td><td><div></div></td></tr><tr><td style="font-weight:bold;vertical-align:top;">path</td><td style="vertical-align:top;">:</td><td><div></div></td></tr><tr><td style="font-weight:bold;vertical-align:top;">secure</td><td style="vertical-align:top;">:</td><td><div></div></td></tr><tr><td style="font-weight:bold;vertical-align:top;">version</td><td style="vertical-align:top;">:</td><td><div></div></td></tr></table></div></td></tr><tr><td style="font-weight:bold;vertical-align:top;">session_id_myappzero</td><td style="vertical-align:top;">:</td><td><div>127.0.0.1-41ad397c-50c5-4858-9e39-6c5ae8bdc5a1<table><tr><td style="font-weight:bold;vertical-align:top;">comment</td><td style="vertical-align:top;">:</td><td><div></div></td></tr><tr><td style="font-weight:bold;vertical-align:top;">domain</td><td style="vertical-align:top;">:</td><td><div></div></td></tr><tr><td style="font-weight:bold;vertical-align:top;">expires</td><td style="vertical-align:top;">:</td><td><div></div></td></tr><tr><td style="font-weight:bold;vertical-align:top;">httponly</td><td style="vertical-align:top;">:</td><td><div></div></td></tr><tr><td style="font-weight:bold;vertical-align:top;">max-age</td><td style="vertical-align:top;">:</td><td><div></div></td></tr><tr><td style="font-weight:bold;vertical-align:top;">path</td><td style="vertical-align:top;">:</td><td><div></div></td></tr><tr><td style="font-weight:bold;vertical-align:top;">secure</td><td style="vertical-align:top;">:</td><td><div></div></td></tr><tr><td style="font-weight:bold;vertical-align:top;">version</td><td style="vertical-align:top;">:</td><td><div></div></td></tr></table></div></td></tr><tr><td style="font-weight:bold;vertical-align:top;">session_id_voto</td><td style="vertical-align:top;">:</td><td><div>127.0.0.1-8786c067-43b4-459a-8441-749730cd2042<table><tr><td style="font-weight:bold;vertical-align:top;">comment</td><td style="vertical-align:top;">:</td><td><div></div></td></tr><tr><td style="font-weight:bold;vertical-align:top;">domain</td><td style="vertical-align:top;">:</td><td><div></div></td></tr><tr><td style="font-weight:bold;vertical-align:top;">expires</td><td style="vertical-align:top;">:</td><td><div></div></td></tr><tr><td style="font-weight:bold;vertical-align:top;">httponly</td><td style="vertical-align:top;">:</td><td><div></div></td></tr><tr><td style="font-weight:bold;vertical-align:top;">max-age</td><td style="vertical-align:top;">:</td><td><div></div></td></tr><tr><td style="font-weight:bold;vertical-align:top;">path</td><td style="vertical-align:top;">:</td><td><div></div></td></tr><tr><td style="font-weight:bold;vertical-align:top;">secure</td><td style="vertical-align:top;">:</td><td><div></div></td></tr><tr><td style="font-weight:bold;vertical-align:top;">version</td><td style="vertical-align:top;">:</td><td><div></div></td></tr></table></div></td></tr><tr><td style="font-weight:bold;vertical-align:top;">session_id_welcome</td><td style="vertical-align:top;">:</td><td><div>127.0.0.1-681ee77d-187b-4fb2-9d07-b68d64a9a1e4<table><tr><td style="font-weight:bold;vertical-align:top;">comment</td><td style="vertical-align:top;">:</td><td><div></div></td></tr><tr><td style="font-weight:bold;vertical-align:top;">domain</td><td style="vertical-align:top;">:</td><td><div></div></td></tr><tr><td style="font-weight:bold;vertical-align:top;">expires</td><td style="vertical-align:top;">:</td><td><div></div></td></tr><tr><td style="font-weight:bold;vertical-align:top;">httponly</td><td style="vertical-align:top;">:</td><td><div></div></td></tr><tr><td style="font-weight:bold;vertical-align:top;">max-age</td><td style="vertical-align:top;">:</td><td><div></div></td></tr><tr><td style="font-weight:bold;vertical-align:top;">path</td><td style="vertical-align:top;">:</td><td><div></div></td></tr><tr><td style="font-weight:bold;vertical-align:top;">secure</td><td style="vertical-align:top;">:</td><td><div></div></td></tr><tr><td style="font-weight:bold;vertical-align:top;">version</td><td style="vertical-align:top;">:</td><td><div></div></td></tr></table></div></td></tr></table></div></td></tr><tr><td style="font-weight:bold;vertical-align:top;">env</td><td style="vertical-align:top;">:</td><td><div><table><tr><td style="font-weight:bold;vertical-align:top;">CONTENT_LENGTH</td><td style="vertical-align:top;">:</td><td><div>375</div></td></tr><tr><td style="font-weight:bold;vertical-align:top;">CONTENT_TYPE</td><td style="vertical-align:top;">:</td><td><div>multipart/form-data; boundary=----WebKitFormBoundaryW61UvfQODFORhmtb</div></td></tr><tr><td style="font-weight:bold;vertical-align:top;">HTTP_ACCEPT</td><td style="vertical-align:top;">:</td><td><div>text/html,application/xhtml+xml,application/xml;q=0.9,image/webp,*/*;q=0.8</div></td></tr><tr><td style="font-weight:bold;vertical-align:top;">HTTP_ACCEPT_ENCODING</td><td style="vertical-align:top;">:</td><td><div>gzip, deflate</div></td></tr><tr><td style="font-weight:bold;vertical-align:top;">HTTP_ACCEPT_LANGUAGE</td><td style="vertical-align:top;">:</td><td><div>pt-BR,pt;q=0.8,en-US;q=0.6,en;q=0.4</div></td></tr><tr><td style="font-weight:bold;vertical-align:top;">HTTP_CACHE_CONTROL</td><td style="vertical-align:top;">:</td><td><div>max-age=0</div></td></tr><tr><td style="font-weight:bold;vertical-align:top;">HTTP_CONNECTION</td><td style="vertical-align:top;">:</td><td><div>keep-alive</div></td></tr><tr><td style="font-weight:bold;vertical-align:top;">HTTP_CONTENT_LENGTH</td><td style="vertical-align:top;">:</td><td><div>375</div></td></tr><tr><td style="font-weight:bold;vertical-align:top;">HTTP_CONTENT_TYPE</td><td style="vertical-align:top;">:</td><td><div>multipart/form-data; boundary=----WebKitFormBoundaryW61UvfQODFORhmtb</div></td></tr><tr><td style="font-weight:bold;vertical-align:top;">HTTP_COOKIE</td><td style="vertical-align:top;">:</td><td><div>session_data_examples=&quot;a632629af9fb55f9fa76a3571908672d:sN1Elcivdjn9AEoZt6p9CH1OYrd76hTOUSbiLoxyR_yP3VUKl1SZjORiT_6q2TsxL5KRFbKY7XlUqLQ8qUQ9fdKSc6SQwqz_hs_xRWB1svIa4GO-qZqNh0xkugb0opWHtCh3BhX5xMfeMOBP2L6lUMmh1yUcuvaOH6visCdSEsDn4ByzGUN5ylEsNFejbxELSaAOwlYRb4roFr9TXARwSQ0S6u7zw0eItm2g8Z9bm7H55aH4W870LM4wPH3cOGqzJmQwzbOivkXCtr0z5-WQ_HDnS1WI3ZTDruG4FQa_MF9avDDeu6JZ8vLf9CeyaUOT&quot;; session_id_examples=True; session_id_myappzero=127.0.0.1-41ad397c-50c5-4858-9e39-6c5ae8bdc5a1; session_id_voto=127.0.0.1-8786c067-43b4-459a-8441-749730cd2042; session_id_myapp=127.0.0.1-dd8a077d-66b1-4b2d-808d-5213f9618b8a; session_id_formulario=127.0.0.1-ad3203e2-ca0b-480a-bc23-84d358ff6197; session_id_controle=127.0.0.1-8d5cd6e4-1136-46a7-8777-e2dc8b975cc3; session_id_welcome=127.0.0.1-681ee77d-187b-4fb2-9d07-b68d64a9a1e4; session_id_anestesia=127.0.0.1-f3e79e0a-00f4-4121-a50b-cf8a4b1af40b; session_id_admin=127.0.0.1-8821195d-d852-402b-9210-e24638d99d35</div></td></tr><tr><td style="font-weight:bold;vertical-align:top;">HTTP_HOST</td><td style="vertical-align:top;">:</td><td><div>127.0.0.1:8000</div></td></tr><tr><td style="font-weight:bold;vertical-align:top;">HTTP_ORIGIN</td><td style="vertical-align:top;">:</td><td><div>http://127.0.0.1:8000</div></td></tr><tr><td style="font-weight:bold;vertical-align:top;">HTTP_REFERER</td><td style="vertical-align:top;">:</td><td><div>http://127.0.0.1:8000/anestesia/pagina_buscar/index</div></td></tr><tr><td style="font-weight:bold;vertical-align:top;">HTTP_USER_AGENT</td><td style="vertical-align:top;">:</td><td><div>Mozilla/5.0 (Windows NT 6.3; WOW64) AppleWebKit/537.36 (KHTML, like Gecko) Chrome/39.0.2171.95 Safari/537.36</div></td></tr><tr><td style="font-weight:bold;vertical-align:top;">PATH_INFO</td><td style="vertical-align:top;">:</td><td><div>/anestesia/pagina_buscar/index</div></td></tr><tr><td style="font-weight:bold;vertical-align:top;">QUERY_STRING</td><td style="vertical-align:top;">:</td><td><div></div></td></tr><tr><td style="font-weight:bold;vertical-align:top;">REMOTE_ADDR</td><td style="vertical-align:top;">:</td><td><div>127.0.0.1</div></td></tr><tr><td style="font-weight:bold;vertical-align:top;">REMOTE_PORT</td><td style="vertical-align:top;">:</td><td><div>65166</div></td></tr><tr><td style="font-weight:bold;vertical-align:top;">REQUEST_METHOD</td><td style="vertical-align:top;">:</td><td><div>POST</div></td></tr><tr><td style="font-weight:bold;vertical-align:top;">SCRIPT_NAME</td><td style="vertical-align:top;">:</td><td><div></div></td></tr><tr><td style="font-weight:bold;vertical-align:top;">SERVER_NAME</td><td style="vertical-align:top;">:</td><td><div>MOHAMED-DTIC</div></td></tr><tr><td style="font-weight:bold;vertical-align:top;">SERVER_PORT</td><td style="vertical-align:top;">:</td><td><div>8000</div></td></tr><tr><td style="font-weight:bold;vertical-align:top;">SERVER_PROTOCOL</td><td style="vertical-align:top;">:</td><td><div>HTTP/1.1</div></td></tr><tr><td style="font-weight:bold;vertical-align:top;">SERVER_SOFTWARE</td><td style="vertical-align:top;">:</td><td><div>Rocket 1.2.6</div></td></tr><tr><td style="font-weight:bold;vertical-align:top;">app_folders</td><td style="vertical-align:top;">:</td><td><div>set([&#x27;D:\\\\Desenvolvimento\\\\web2py\\\\applications\\\\admin\\\\&#x27;, &#x27;D:\\\\Desenvolvimento\\\\web2py\\\\applications\\\\anestesia\\\\&#x27;, &#x27;D:\\\\Desenvolvimento\\\\web2py\\\\applications\\\\welcome\\\\&#x27;])</div></td></tr><tr><td style="font-weight:bold;vertical-align:top;">applications_parent</td><td style="vertical-align:top;">:</td><td><div>D:\\Desenvolvimento\\web2py</div></td></tr><tr><td style="font-weight:bold;vertical-align:top;">cmd_args</td><td style="vertical-align:top;">:</td><td><div><table></table></div></td></tr><tr><td style="font-weight:bold;vertical-align:top;">cmd_options</td><td style="vertical-align:top;">:</td><td><div>&lt;Values at 0x30ab698: {&#x27;verbose&#x27;: False, &#x27;ip&#x27;: &#x27;127.0.0.1&#x27;, &#x27;debuglevel&#x27;: 30, &#x27;with_scheduler&#x27;: False, &#x27;ips&#x27;: [&#x27;192.168.71.1&#x27;, &#x27;fe80::4023:9900:3196:7ccb%5&#x27;, &#x27;10.129.18.33&#x27;, &#x27;192.168.16.1&#x27;, &#x27;fe80::6dc3:bcf7:daee:374c%7&#x27;, &#x27;fe80::4932:49bd:49c6:6ebe%3&#x27;], &#x27;shutdown_timeout&#x27;: 5, &#x27;taskbar&#x27;: False, &#x27;with_coverage&#x27;: False, &#x27;scheduler_groups&#x27;: None, &#x27;port&#x27;: 8000, &#x27;maxthreads&#x27;: None, &#x27;softcron&#x27;: False, &#x27;server_name&#x27;: &#x27;MOHAMED-DTIC&#x27;, &#x27;bpython&#x27;: False, &#x27;nogui&#x27;: False, &#x27;pid_filename&#x27;: &#x27;httpserver.pid&#x27;, &#x27;extcron&#x27;: False, &#x27;runcron&#x27;: False, &#x27;run_system_tests&#x27;: False, &#x27;test&#x27;: None, &#x27;folder&#x27;: &#x27;D:\\\\Desenvolvimento\\\\web2py&#x27;, &#x27;config&#x27;: &#x27;&#x27;, &#x27;minthreads&#x27;: None, &#x27;shell&#x27;: None, &#x27;run&#x27;: &#x27;&#x27;, &#x27;log_filename&#x27;: &#x27;httpserver.log&#x27;, &#x27;profiler_dir&#x27;: None, &#x27;args&#x27;: [&#x27;&#x27;], &#x27;socket_timeout&#x27;: 5, &#x27;ssl_ca_certificate&#x27;: None, &#x27;scheduler&#x27;: None, &#x27;interfaces&#x27;: None, &#x27;ssl_private_key&#x27;: &#x27;&#x27;, &#x27;gae&#x27;: None, &#x27;password&#x27;: &#x27;&lt;ask&gt;&#x27;, &#x27;request_queue_size&#x27;: 5, &#x27;ssl_certificate&#x27;: &#x27;&#x27;, &#x27;cronjob&#x27;: False, &#x27;numthreads&#x27;: None, &#x27;quiet&#x27;: False, &#x27;import_models&#x27;: False, &#x27;timeout&#x27;: 10, &#x27;plain&#x27;: False, &#x27;nobanner&#x27;: False}&gt;</div></td></tr><tr><td style="font-weight:bold;vertical-align:top;">content_length</td><td style="vertical-align:top;">:</td><td><div>375</div></td></tr><tr><td style="font-weight:bold;vertical-align:top;">content_type</td><td style="vertical-align:top;">:</td><td><div>multipart/form-data; boundary=----WebKitFormBoundaryW61UvfQODFORhmtb</div></td></tr><tr><td style="font-weight:bold;vertical-align:top;">db_sessions</td><td style="vertical-align:top;">:</td><td><div>set([])</div></td></tr><tr><td style="font-weight:bold;vertical-align:top;">debugging</td><td style="vertical-align:top;">:</td><td><div>False</div></td></tr><tr><td style="font-weight:bold;vertical-align:top;">gluon_parent</td><td style="vertical-align:top;">:</td><td><div>D:\\Desenvolvimento\\web2py</div></td></tr><tr><td style="font-weight:bold;vertical-align:top;">http_accept</td><td style="vertical-align:top;">:</td><td><div>text/html,application/xhtml+xml,application/xml;q=0.9,image/webp,*/*;q=0.8</div></td></tr><tr><td style="font-weight:bold;vertical-align:top;">http_accept_encoding</td><td style="vertical-align:top;">:</td><td><div>gzip, deflate</div></td></tr><tr><td style="font-weight:bold;vertical-align:top;">http_accept_language</td><td style="vertical-align:top;">:</td><td><div>pt-BR,pt;q=0.8,en-US;q=0.6,en;q=0.4</div></td></tr><tr><td style="font-weight:bold;vertical-align:top;">http_cache_control</td><td style="vertical-align:top;">:</td><td><div>max-age=0</div></td></tr><tr><td style="font-weight:bold;vertical-align:top;">http_connection</td><td style="vertical-align:top;">:</td><td><div>keep-alive</div></td></tr><tr><td style="font-weight:bold;vertical-align:top;">http_content_length</td><td style="vertical-align:top;">:</td><td><div>375</div></td></tr><tr><td style="font-weight:bold;vertical-align:top;">http_content_type</td><td style="vertical-align:top;">:</td><td><div>multipart/form-data; boundary=----WebKitFormBoundaryW61UvfQODFORhmtb</div></td></tr><tr><td style="font-weight:bold;vertical-align:top;">http_cookie</td><td style="vertical-align:top;">:</td><td><div>session_data_examples=&quot;a632629af9fb55f9fa76a3571908672d:sN1Elcivdjn9AEoZt6p9CH1OYrd76hTOUSbiLoxyR_yP3VUKl1SZjORiT_6q2TsxL5KRFbKY7XlUqLQ8qUQ9fdKSc6SQwqz_hs_xRWB1svIa4GO-qZqNh0xkugb0opWHtCh3BhX5xMfeMOBP2L6lUMmh1yUcuvaOH6visCdSEsDn4ByzGUN5ylEsNFejbxELSaAOwlYRb4roFr9TXARwSQ0S6u7zw0eItm2g8Z9bm7H55aH4W870LM4wPH3cOGqzJmQwzbOivkXCtr0z5-WQ_HDnS1WI3ZTDruG4FQa_MF9avDDeu6JZ8vLf9CeyaUOT&quot;; session_id_examples=True; session_id_myappzero=127.0.0.1-41ad397c-50c5-4858-9e39-6c5ae8bdc5a1; session_id_voto=127.0.0.1-8786c067-43b4-459a-8441-749730cd2042; session_id_myapp=127.0.0.1-dd8a077d-66b1-4b2d-808d-5213f9618b8a; session_id_formulario=127.0.0.1-ad3203e2-ca0b-480a-bc23-84d358ff6197; session_id_controle=127.0.0.1-8d5cd6e4-1136-46a7-8777-e2dc8b975cc3; session_id_welcome=127.0.0.1-681ee77d-187b-4fb2-9d07-b68d64a9a1e4; session_id_anestesia=127.0.0.1-f3e79e0a-00f4-4121-a50b-cf8a4b1af40b; session_id_admin=127.0.0.1-8821195d-d852-402b-9210-e24638d99d35</div></td></tr><tr><td style="font-weight:bold;vertical-align:top;">http_host</td><td style="vertical-align:top;">:</td><td><div>127.0.0.1:8000</div></td></tr><tr><td style="font-weight:bold;vertical-align:top;">http_origin</td><td style="vertical-align:top;">:</td><td><div>http://127.0.0.1:8000</div></td></tr><tr><td style="font-weight:bold;vertical-align:top;">http_referer</td><td style="vertical-align:top;">:</td><td><div>http://127.0.0.1:8000/anestesia/pagina_buscar/index</div></td></tr><tr><td style="font-weight:bold;vertical-align:top;">http_user_agent</td><td style="vertical-align:top;">:</td><td><div>Mozilla/5.0 (Windows NT 6.3; WOW64) AppleWebKit/537.36 (KHTML, like Gecko) Chrome/39.0.2171.95 Safari/537.36</div></td></tr><tr><td style="font-weight:bold;vertical-align:top;">is_jython</td><td style="vertical-align:top;">:</td><td><div>False</div></td></tr><tr><td style="font-weight:bold;vertical-align:top;">is_pypy</td><td style="vertical-align:top;">:</td><td><div>False</div></td></tr><tr><td style="font-weight:bold;vertical-align:top;">is_source</td><td style="vertical-align:top;">:</td><td><div>True</div></td></tr><tr><td style="font-weight:bold;vertical-align:top;">local_hosts</td><td style="vertical-align:top;">:</td><td><div><table><tr><td><div>192.168.71.1</div></td></tr><tr><td><div>fe80::4023:9900:3196:7ccb%5</div></td></tr><tr><td><div>fe80::6dc3:bcf7:daee:374c%7</div></td></tr><tr><td><div>::ffff:127.0.0.1</div></td></tr><tr><td><div>MOHAMED-DTIC</div></td></tr><tr><td><div>10.129.18.33</div></td></tr><tr><td><div>192.168.16.1</div></td></tr><tr><td><div>::1</div></td></tr><tr><td><div>MOHAMED-DTIC.unirio.br</div></td></tr><tr><td><div>127.0.0.1</div></td></tr><tr><td><div>fe80::4932:49bd:49c6:6ebe%3</div></td></tr></table></div></td></tr><tr><td style="font-weight:bold;vertical-align:top;">path_info</td><td style="vertical-align:top;">:</td><td><div>/anestesia/pagina_buscar/index</div></td></tr><tr><td style="font-weight:bold;vertical-align:top;">query_string</td><td style="vertical-align:top;">:</td><td><div></div></td></tr><tr><td style="font-weight:bold;vertical-align:top;">remote_addr</td><td style="vertical-align:top;">:</td><td><div>127.0.0.1</div></td></tr><tr><td style="font-weight:bold;vertical-align:top;">remote_port</td><td style="vertical-align:top;">:</td><td><div>65166</div></td></tr><tr><td style="font-weight:bold;vertical-align:top;">request_method</td><td style="vertical-align:top;">:</td><td><div>POST</div></td></tr><tr><td style="font-weight:bold;vertical-align:top;">request_uri</td><td style="vertical-align:top;">:</td><td><div>/anestesia/pagina_buscar/index</div></td></tr><tr><td style="font-weight:bold;vertical-align:top;">script_name</td><td style="vertical-align:top;">:</td><td><div></div></td></tr><tr><td style="font-weight:bold;vertical-align:top;">server_name</td><td style="vertical-align:top;">:</td><td><div>MOHAMED-DTIC</div></td></tr><tr><td style="font-weight:bold;vertical-align:top;">server_port</td><td style="vertical-align:top;">:</td><td><div>8000</div></td></tr><tr><td style="font-weight:bold;vertical-align:top;">server_protocol</td><td style="vertical-align:top;">:</td><td><div>HTTP/1.1</div></td></tr><tr><td style="font-weight:bold;vertical-align:top;">server_software</td><td style="vertical-align:top;">:</td><td><div>Rocket 1.2.6</div></td></tr><tr><td style="font-weight:bold;vertical-align:top;">web2py_path</td><td style="vertical-align:top;">:</td><td><div>D:\\Desenvolvimento\\web2py</div></td></tr><tr><td style="font-weight:bold;vertical-align:top;">web2py_version</td><td style="vertical-align:top;">:</td><td><div>2.9.11-stable+timestamp.2014.09.15.23.35.11</div></td></tr><tr><td style="font-weight:bold;vertical-align:top;">wsgi.errors</td><td style="vertical-align:top;">:</td><td><div>&lt;open file &#x27;&lt;stderr&gt;&#x27;, mode &#x27;w&#x27; at 0x01DC50D0&gt;</div></td></tr><tr><td style="font-weight:bold;vertical-align:top;">wsgi.file_wrapper</td><td style="vertical-align:top;">:</td><td><div>&lt;class wsgiref.util.FileWrapper at 0x030591F0&gt;</div></td></tr><tr><td style="font-weight:bold;vertical-align:top;">wsgi.input</td><td style="vertical-align:top;">:</td><td><div>&lt;socket._fileobject object at 0x08E7F9F0&gt;</div></td></tr><tr><td style="font-weight:bold;vertical-align:top;">wsgi.multiprocess</td><td style="vertical-align:top;">:</td><td><div>False</div></td></tr><tr><td style="font-weight:bold;vertical-align:top;">wsgi.multithread</td><td style="vertical-align:top;">:</td><td><div>True</div></td></tr><tr><td style="font-weight:bold;vertical-align:top;">wsgi.run_once</td><td style="vertical-align:top;">:</td><td><div>False</div></td></tr><tr><td style="font-weight:bold;vertical-align:top;">wsgi.url_scheme</td><td style="vertical-align:top;">:</td><td><div>http</div></td></tr><tr><td style="font-weight:bold;vertical-align:top;">wsgi.version</td><td style="vertical-align:top;">:</td><td><div><table><tr><td><div>1</div></td></tr><tr><td><div>0</div></td></tr></table></div></td></tr><tr><td style="font-weight:bold;vertical-align:top;">wsgi_errors</td><td style="vertical-align:top;">:</td><td><div>&lt;open file &#x27;&lt;stderr&gt;&#x27;, mode &#x27;w&#x27; at 0x01DC50D0&gt;</div></td></tr><tr><td style="font-weight:bold;vertical-align:top;">wsgi_file_wrapper</td><td style="vertical-align:top;">:</td><td><div>&lt;class wsgiref.util.FileWrapper at 0x030591F0&gt;</div></td></tr><tr><td style="font-weight:bold;vertical-align:top;">wsgi_input</td><td style="vertical-align:top;">:</td><td><div>&lt;socket._fileobject object at 0x08E7F9F0&gt;</div></td></tr><tr><td style="font-weight:bold;vertical-align:top;">wsgi_multiprocess</td><td style="vertical-align:top;">:</td><td><div>False</div></td></tr><tr><td style="font-weight:bold;vertical-align:top;">wsgi_multithread</td><td style="vertical-align:top;">:</td><td><div>True</div></td></tr><tr><td style="font-weight:bold;vertical-align:top;">wsgi_run_once</td><td style="vertical-align:top;">:</td><td><div>False</div></td></tr><tr><td style="font-weight:bold;vertical-align:top;">wsgi_url_scheme</td><td style="vertical-align:top;">:</td><td><div>http</div></td></tr><tr><td style="font-weight:bold;vertical-align:top;">wsgi_version</td><td style="vertical-align:top;">:</td><td><div><table><tr><td><div>1</div></td></tr><tr><td><div>0</div></td></tr></table></div></td></tr></table></div></td></tr><tr><td style="font-weight:bold;vertical-align:top;">extension</td><td style="vertical-align:top;">:</td><td><div>html</div></td></tr><tr><td style="font-weight:bold;vertical-align:top;">folder</td><td style="vertical-align:top;">:</td><td><div>D:\\Desenvolvimento\\web2py\\applications\\anestesia\\</div></td></tr><tr><td style="font-weight:bold;vertical-align:top;">function</td><td style="vertical-align:top;">:</td><td><div>index</div></td></tr><tr><td style="font-weight:bold;vertical-align:top;">global_settings</td><td style="vertical-align:top;">:</td><td><div><table><tr><td style="font-weight:bold;vertical-align:top;">app_folders</td><td style="vertical-align:top;">:</td><td><div>set([&#x27;D:\\\\Desenvolvimento\\\\web2py\\\\applications\\\\admin\\\\&#x27;, &#x27;D:\\\\Desenvolvimento\\\\web2py\\\\applications\\\\anestesia\\\\&#x27;, &#x27;D:\\\\Desenvolvimento\\\\web2py\\\\applications\\\\welcome\\\\&#x27;])</div></td></tr><tr><td style="font-weight:bold;vertical-align:top;">applications_parent</td><td style="vertical-align:top;">:</td><td><div>D:\\Desenvolvimento\\web2py</div></td></tr><tr><td style="font-weight:bold;vertical-align:top;">cmd_args</td><td style="vertical-align:top;">:</td><td><div><table></table></div></td></tr><tr><td style="font-weight:bold;vertical-align:top;">cmd_options</td><td style="vertical-align:top;">:</td><td><div>&lt;Values at 0x30ab698: {&#x27;verbose&#x27;: False, &#x27;ip&#x27;: &#x27;127.0.0.1&#x27;, &#x27;debuglevel&#x27;: 30, &#x27;with_scheduler&#x27;: False, &#x27;ips&#x27;: [&#x27;192.168.71.1&#x27;, &#x27;fe80::4023:9900:3196:7ccb%5&#x27;, &#x27;10.129.18.33&#x27;, &#x27;192.168.16.1&#x27;, &#x27;fe80::6dc3:bcf7:daee:374c%7&#x27;, &#x27;fe80::4932:49bd:49c6:6ebe%3&#x27;], &#x27;shutdown_timeout&#x27;: 5, &#x27;taskbar&#x27;: False, &#x27;with_coverage&#x27;: False, &#x27;scheduler_groups&#x27;: None, &#x27;port&#x27;: 8000, &#x27;maxthreads&#x27;: None, &#x27;softcron&#x27;: False, &#x27;server_name&#x27;: &#x27;MOHAMED-DTIC&#x27;, &#x27;bpython&#x27;: False, &#x27;nogui&#x27;: False, &#x27;pid_filename&#x27;: &#x27;httpserver.pid&#x27;, &#x27;extcron&#x27;: False, &#x27;runcron&#x27;: False, &#x27;run_system_tests&#x27;: False, &#x27;test&#x27;: None, &#x27;folder&#x27;: &#x27;D:\\\\Desenvolvimento\\\\web2py&#x27;, &#x27;config&#x27;: &#x27;&#x27;, &#x27;minthreads&#x27;: None, &#x27;shell&#x27;: None, &#x27;run&#x27;: &#x27;&#x27;, &#x27;log_filename&#x27;: &#x27;httpserver.log&#x27;, &#x27;profiler_dir&#x27;: None, &#x27;args&#x27;: [&#x27;&#x27;], &#x27;socket_timeout&#x27;: 5, &#x27;ssl_ca_certificate&#x27;: None, &#x27;scheduler&#x27;: None, &#x27;interfaces&#x27;: None, &#x27;ssl_private_key&#x27;: &#x27;&#x27;, &#x27;gae&#x27;: None, &#x27;password&#x27;: &#x27;&lt;ask&gt;&#x27;, &#x27;request_queue_size&#x27;: 5, &#x27;ssl_certificate&#x27;: &#x27;&#x27;, &#x27;cronjob&#x27;: False, &#x27;numthreads&#x27;: None, &#x27;quiet&#x27;: False, &#x27;import_models&#x27;: False, &#x27;timeout&#x27;: 10, &#x27;plain&#x27;: False, &#x27;nobanner&#x27;: False}&gt;</div></td></tr><tr><td style="font-weight:bold;vertical-align:top;">db_sessions</td><td style="vertical-align:top;">:</td><td><div>set([])</div></td></tr><tr><td style="font-weight:bold;vertical-align:top;">debugging</td><td style="vertical-align:top;">:</td><td><div>False</div></td></tr><tr><td style="font-weight:bold;vertical-align:top;">gluon_parent</td><td style="vertical-align:top;">:</td><td><div>D:\\Desenvolvimento\\web2py</div></td></tr><tr><td style="font-weight:bold;vertical-align:top;">is_jython</td><td style="vertical-align:top;">:</td><td><div>False</div></td></tr><tr><td style="font-weight:bold;vertical-align:top;">is_pypy</td><td style="vertical-align:top;">:</td><td><div>False</div></td></tr><tr><td style="font-weight:bold;vertical-align:top;">is_source</td><td style="vertical-align:top;">:</td><td><div>True</div></td></tr><tr><td style="font-weight:bold;vertical-align:top;">local_hosts</td><td style="vertical-align:top;">:</td><td><div><table><tr><td><div>192.168.71.1</div></td></tr><tr><td><div>fe80::4023:9900:3196:7ccb%5</div></td></tr><tr><td><div>fe80::6dc3:bcf7:daee:374c%7</div></td></tr><tr><td><div>::ffff:127.0.0.1</div></td></tr><tr><td><div>MOHAMED-DTIC</div></td></tr><tr><td><div>10.129.18.33</div></td></tr><tr><td><div>192.168.16.1</div></td></tr><tr><td><div>::1</div></td></tr><tr><td><div>MOHAMED-DTIC.unirio.br</div></td></tr><tr><td><div>127.0.0.1</div></td></tr><tr><td><div>fe80::4932:49bd:49c6:6ebe%3</div></td></tr></table></div></td></tr><tr><td style="font-weight:bold;vertical-align:top;">web2py_version</td><td style="vertical-align:top;">:</td><td><div>2.9.11-stable+timestamp.2014.09.15.23.35.11</div></td></tr></table></div></td></tr><tr><td style="font-weight:bold;vertical-align:top;">is_https</td><td style="vertical-align:top;">:</td><td><div>False</div></td></tr><tr><td style="font-weight:bold;vertical-align:top;">is_local</td><td style="vertical-align:top;">:</td><td><div>True</div></td></tr><tr><td style="font-weight:bold;vertical-align:top;">is_restful</td><td style="vertical-align:top;">:</td><td><div>False</div></td></tr><tr><td style="font-weight:bold;vertical-align:top;">is_sheduler</td><td style="vertical-align:top;">:</td><td><div>None</div></td></tr><tr><td style="font-weight:bold;vertical-align:top;">is_shell</td><td style="vertical-align:top;">:</td><td><div>None</div></td></tr><tr><td style="font-weight:bold;vertical-align:top;">now</td><td style="vertical-align:top;">:</td><td><div>datetime.datetime(2014, 12, 18, 11, 3, 8, 934000)</div></td></tr><tr><td style="font-weight:bold;vertical-align:top;">raw_args</td><td style="vertical-align:top;">:</td><td><div></div></td></tr><tr><td style="font-weight:bold;vertical-align:top;">raw_extension</td><td style="vertical-align:top;">:</td><td><div>None</div></td></tr><tr><td style="font-weight:bold;vertical-align:top;">url</td><td style="vertical-align:top;">:</td><td><div>/anestesia/pagina_buscar/index</div></td></tr><tr><td style="font-weight:bold;vertical-align:top;">utcnow</td><td style="vertical-align:top;">:</td><td><div>datetime.datetime(2014, 12, 18, 13, 3, 8, 934000)</div></td></tr><tr><td style="font-weight:bold;vertical-align:top;">uuid</td><td style="vertical-align:top;">:</td><td><div>anestesia/127.0.0.1.2014-12-18.11-03-08.fa9b32ac-a253-46e9-b7c9-3943dc6c7397</div></td></tr><tr><td style="font-weight:bold;vertical-align:top;">wsgi</td><td style="vertical-align:top;">:</td><td><div>&lt;gluon.main.LazyWSGI object at 0x08D21530&gt;</div></td></tr></table></div>'
tRp62
sS'frames'
p63
(lp64
(dp65
S'file'
p66
S'D:\\Desenvolvimento\\web2py\\gluon\\restricted.py'
p67
sS'dump'
p68
(dp69
S'environment'
p70
S"{'A': <class 'gluon.html.A'>, 'ANY_OF': <class 'gluon.validators.ANY_OF'>, 'ASSIGNJS': <function ASSIGNJS>, 'Auth': <class 'gluon.tools.Auth'>, 'B': <class 'gluon.html.B'>, 'BEAUTIFY': <class 'gluon.html.BEAUTIFY'>, 'BODY': <class 'gluon.html.BODY'>, 'BR': <class 'gluon.html.BR'>, 'BUTTON': <class 'gluon.html.BUTTON'>, 'CAT': <class 'gluon.html.CAT'>, ...}"
p71
sS'ccode'
p72
S'<code object <module> at 08B6BB18, file "D:\\Dese...\\anestesia\\controllers/pagina_buscar.py", line 1>'
p73
ssS'lnum'
p74
I224
sS'lines'
p75
(dp76
I224
S'        exec ccode in environment'
p77
sI225
S'    except HTTP:'
p78
sI226
S'        raise'
p79
sI227
S'    except RestrictedError:'
p80
sI228
S'        # do not encapsulate (obfuscate) the original RestrictedError'
p81
sI219
S'    try:'
p82
sI220
S'        if isinstance(code, types.CodeType):'
p83
sI221
S'            ccode = code'
p84
sI222
S'        else:'
p85
sI223
S'            ccode = compile2(code, layer)'
p86
ssS'call'
p87
S'(code="__author__ = \'Mohamed\'\\n\\n\\ndef gerar_campos_busca(..._linhas)\\n\\nresponse._vars=response._caller(index)\\n", environment={\'A\': <class \'gluon.html.A\'>, \'ANY_OF\': <class \'gluon.validators.ANY_OF\'>, \'ASSIGNJS\': <function ASSIGNJS>, \'Auth\': <class \'gluon.tools.Auth\'>, \'B\': <class \'gluon.html.B\'>, \'BEAUTIFY\': <class \'gluon.html.BEAUTIFY\'>, \'BODY\': <class \'gluon.html.BODY\'>, \'BR\': <class \'gluon.html.BR\'>, \'BUTTON\': <class \'gluon.html.BUTTON\'>, \'CAT\': <class \'gluon.html.CAT\'>, ...}, layer=r\'D:\\Desenvolvimento\\web2py\\applications\\anestesia\\controllers/pagina_buscar.py\')'
p88
sS'func'
p89
S'restricted'
p90
sa(dp91
g66
S'D:\\Desenvolvimento\\web2py\\applications\\anestesia\\controllers\\pagina_buscar.py'
p92
sg68
(dp93
sg74
I44
sg75
(dp94
I33
S"    myconsulta = ''"
p95
sI34
S"    dados = ''"
p96
sI35
S"    linhas = ''"
p97
sI36
S'    busca = gerar_campos_busca()'
p98
sI37
S'    if busca.accepts(request, session):'
p99
sI38
S'        linhas = consulta(request.vars.nome_busca)'
p100
sI39
S''
sI40
S'    nr_linhas = conta_consulta(request.vars.nome_busca)'
p101
sI41
S''
sI42
S'    return dict(busca=busca, linhas=linhas, nr_linhas=nr_linhas)'
p102
ssg87
S'()'
p103
sg89
S'<module>'
p104
sa(dp105
g66
S'D:\\Desenvolvimento\\web2py\\gluon\\globals.py'
p106
sg68
(dp107
S'self'
p108
S'undefined'
p109
sS'f'
S'<function index>'
p110
ssg74
I392
sg75
(dp111
I387
S"        self.flash = ''            # used by the default view layout"
p112
sI388
S'        self.meta = Storage()      # used by web2py_ajax.html'
p113
sI389
S'        self.menu = []             # used by the default view layout'
p114
sI390
S'        self.files = []            # used by web2py_ajax.html'
p115
sI391
S'        self._vars = None'
p116
sI392
S'        self._caller = lambda f: f()'
p117
sI393
S'        self._view_environment = None'
p118
sI394
S'        self._custom_commit = None'
p119
sI395
S'        self._custom_rollback = None'
p120
sI396
S"        self.generic_patterns = ['*']"
p121
ssg87
S'(f=<function index>)'
p122
sg89
S'<lambda>'
p123
sa(dp124
g66
S'D:\\Desenvolvimento\\web2py\\applications\\anestesia\\controllers\\pagina_buscar.py'
p125
sg68
(dp126
sg74
I40
sg75
(dp127
I33
S"    myconsulta = ''"
p128
sI34
S"    dados = ''"
p129
sI35
S"    linhas = ''"
p130
sI36
S'    busca = gerar_campos_busca()'
p131
sI37
S'    if busca.accepts(request, session):'
p132
sI38
S'        linhas = consulta(request.vars.nome_busca)'
p133
sI39
S''
sI40
S'    nr_linhas = conta_consulta(request.vars.nome_busca)'
p134
sI41
S''
sI42
S'    return dict(busca=busca, linhas=linhas, nr_linhas=nr_linhas)'
p135
ssg87
S'()'
p136
sg89
S'index'
p137
sa(dp138
g66
S'D:\\Desenvolvimento\\web2py\\applications\\anestesia\\controllers\\pagina_buscar.py'
p139
sg68
(dp140
S'matricula'
p141
g109
ssg74
I28
sg75
(dp142
I32
S'def index():'
p143
sI23
S'    query = db(db.paciente.nome == nome).select()'
p144
sI24
S'    return query'
p145
sI25
S''
sI26
S'def conta_consulta(nome):'
p146
sI27
S'    query = db(db.paciente.nome == nome).select()'
p147
sI28
S'    nr_linhas = db(query).count()'
p148
sI29
S'    return nr_linhas'
p149
sI30
S''
sI31
S''
ssg87
S"(nome='')"
p150
sg89
S'conta_consulta'
p151
sa(dp152
g66
S'D:\\Desenvolvimento\\web2py\\gluon\\dal.py'
p153
sg68
(dp154
S'self.query'
p155
S'<Rows (0)>'
p156
sS'db._adapter'
p157
S'<gluon.dal.PostgreSQLAdapter object>'
p158
sS'distinct'
p159
S'None'
p160
sS'self'
p161
S'<Set paciente.id,paciente.nr_registro,paciente.m...cirurgia,paciente.anestesia,paciente.cirurgiao\r\n>'
p162
sS'db'
p163
S'<DAL uri="postgres:******@teste.sistemas.unirio.br:5432/anestesia">'
p164
sS'db._adapter.count'
p165
S'<bound method PostgreSQLAdapter.count of <gluon.dal.PostgreSQLAdapter object>>'
p166
ssg74
I10739
sg75
(dp167
I10734
S'            return cache_model('
p168
sI10735
S'                key,'
p169
sI10736
S'                (lambda self=self, distinct=distinct:'
p170
sI10737
S'                 db._adapter.count(self.query, distinct)),'
p171
sI10738
S'                time_expire)'
p172
sI10739
S'        return db._adapter.count(self.query, distinct)'
p173
sI10740
S''
sI10741
S'    def select(self, *fields, **attributes):'
p174
sI10742
S'        adapter = self.db._adapter'
p175
sI10743
S'        tablenames = adapter.tables(self.query,'
p176
ssg87
S'(self=<Set paciente.id,paciente.nr_registro,paciente.m...cirurgia,paciente.anestesia,paciente.cirurgiao\r\n>, distinct=None, cache=None)'
p177
sg89
S'count'
p178
sa(dp179
g66
S'D:\\Desenvolvimento\\web2py\\gluon\\dal.py'
p180
sg68
(dp181
S'distinct'
p182
S'None'
p183
sS'query'
p184
S'<Rows (0)>'
p185
sS'self'
p186
S'<gluon.dal.PostgreSQLAdapter object>'
p187
sS'self._count'
p188
S'<bound method PostgreSQLAdapter._count of <gluon.dal.PostgreSQLAdapter object>>'
p189
sS'self.execute'
p190
S'<bound method PostgreSQLAdapter.execute of <gluon.dal.PostgreSQLAdapter object>>'
p191
ssg74
I1901
sg75
(dp192
I1896
S"            return 'SELECT count(DISTINCT %s) FROM %s%s;' % \\"
p193
sI1897
S'                (sql_d, sql_t, sql_w)'
p194
sI1898
S"        return 'SELECT count(*) FROM %s%s;' % (sql_t, sql_w)"
p195
sI1899
S''
sI1900
S'    def count(self, query, distinct=None):'
p196
sI1901
S'        self.execute(self._count(query, distinct))'
p197
sI1902
S'        return self.cursor.fetchone()[0]'
p198
sI1903
S''
sI1904
S'    def tables(self, *queries):'
p199
sI1905
S'        tables = set()'
p200
ssg87
S'(self=<gluon.dal.PostgreSQLAdapter object>, query=<Rows (0)>, distinct=None)'
p201
sg89
g178
sa(dp202
g66
S'D:\\Desenvolvimento\\web2py\\gluon\\dal.py'
p203
sg68
(dp204
S'a'
S"('SELECT count(*) FROM ;',)"
p205
sS'self'
p206
S'<gluon.dal.PostgreSQLAdapter object>'
p207
sS'b'
g21
sS'self.log_execute'
p208
S'<bound method PostgreSQLAdapter.log_execute of <gluon.dal.PostgreSQLAdapter object>>'
p209
ssg74
I1967
sg75
(dp210
I1962
S'        self.db._timings.append((command, time.time()-t0))'
p211
sI1963
S'        del self.db._timings[:-TIMINGSSIZE]'
p212
sI1964
S'        return ret'
p213
sI1965
S''
sI1966
S'    def execute(self, *a, **b):'
p214
sI1967
S'        return self.log_execute(*a, **b)'
p215
sI1968
S''
sI1969
S'    def represent(self, obj, fieldtype):'
p216
sI1970
S'        field_is_type = fieldtype.startswith'
p217
sI1971
S'        if isinstance(obj, CALLABLETYPES):'
p218
ssg87
S"(self=<gluon.dal.PostgreSQLAdapter object>, *a=('SELECT count(*) FROM ;',), **b={})"
p219
sg89
S'execute'
p220
sa(dp221
g66
S'D:\\Desenvolvimento\\web2py\\gluon\\dal.py'
p222
sg68
(dp223
S'a'
S"('SELECT count(*) FROM ;',)"
p224
sS'b'
g21
sS'self'
p225
S'<gluon.dal.PostgreSQLAdapter object>'
p226
sS'ret'
p227
g109
sS'self.cursor'
p228
S'<gluon.contrib.pg8000.dbapi.CursorWrapper object>'
p229
sS'command'
p230
S"'SELECT count(*) FROM ;'"
p231
sS'self.cursor.execute'
p232
S'<bound method CursorWrapper._fn of <gluon.contrib.pg8000.dbapi.CursorWrapper object>>'
p233
ssg74
I1961
sg75
(dp234
I1956
S'            command = self.filter_sql_command(command)'
p235
sI1957
S'        if self.db._debug:'
p236
sI1958
S"            LOGGER.debug('SQL: %s' % command)"
p237
sI1959
S'        self.db._lastsql = command'
p238
sI1960
S'        t0 = time.time()'
p239
sI1961
S'        ret = self.cursor.execute(command, *a[1:], **b)'
p240
sI1962
S'        self.db._timings.append((command, time.time()-t0))'
p241
sI1963
S'        del self.db._timings[:-TIMINGSSIZE]'
p242
sI1964
S'        return ret'
p243
sI1965
S''
ssg87
S"(self=<gluon.dal.PostgreSQLAdapter object>, *a=('SELECT count(*) FROM ;',), **b={})"
p244
sg89
S'log_execute'
p245
sa(dp246
g66
S'D:\\Desenvolvimento\\web2py\\gluon\\contrib\\pg8000\\dbapi.py'
p247
sg68
(dp248
S'self'
p249
S'<gluon.contrib.pg8000.dbapi.CursorWrapper object>'
p250
sS'args'
p251
S"('SELECT count(*) FROM ;',)"
p252
sS'fn'
p253
S'<function execute>'
p254
sS'kwargs'
p255
g21
ssg74
I246
sg75
(dp256
I241
S''
sI242
S'def require_open_cursor(fn):'
p257
sI243
S'    def _fn(self, *args, **kwargs):'
p258
sI244
S'        if self.cursor == None:'
p259
sI245
S'            raise CursorClosedError()'
p260
sI246
S'        return fn(self, *args, **kwargs)'
p261
sI247
S'    return _fn'
p262
sI248
S''
sI249
S'##'
p263
sI250
S'# The class of object returned by the {@link #ConnectionWrapper.cursor cursor method}.'
p264
ssg87
S"(self=<gluon.contrib.pg8000.dbapi.CursorWrapper object>, *args=('SELECT count(*) FROM ;',), **kwargs={})"
p265
sg89
S'_fn'
p266
sa(dp267
g66
S'D:\\Desenvolvimento\\web2py\\gluon\\contrib\\pg8000\\dbapi.py'
p268
sg68
(dp269
S'self._execute'
p270
S'<bound method CursorWrapper._execute of <gluon.contrib.pg8000.dbapi.CursorWrapper object>>'
p271
sS'self'
p272
S'<gluon.contrib.pg8000.dbapi.CursorWrapper object>'
p273
sS'args'
p274
S'()'
p275
sS'operation'
p276
S"'SELECT count(*) FROM ;'"
p277
ssg74
I317
sg75
(dp278
I320
S'        new_query, new_args = convert_paramstyle(paramstyle, operation, args)'
p279
sI321
S'        try:'
p280
sI312
S'    @require_open_cursor'
p281
sI313
S'    def execute(self, operation, args=()):'
p282
sI314
S'        if not self._connection.in_transaction:'
p283
sI315
S'            self._connection.begin()'
p284
sI316
S'        self._override_rowcount = None'
p285
sI317
S'        self._execute(operation, args)'
p286
sI318
S''
sI319
S'    def _execute(self, operation, args=()):'
p287
ssg87
S"(self=<gluon.contrib.pg8000.dbapi.CursorWrapper object>, operation='SELECT count(*) FROM ;', args=())"
p288
sg89
g220
sa(dp289
g66
S'D:\\Desenvolvimento\\web2py\\gluon\\contrib\\pg8000\\dbapi.py'
p290
sg68
(dp291
S'new_args'
p292
S'()'
p293
sS'self.cursor'
p294
S'<gluon.contrib.pg8000.interface.Cursor object>'
p295
sS'self'
p296
S'<gluon.contrib.pg8000.dbapi.CursorWrapper object>'
p297
sS'new_query'
p298
S"'SELECT count(*) FROM ;'"
p299
sS'self.cursor.execute'
p300
S'<bound method Cursor.execute of <gluon.contrib.pg8000.interface.Cursor object>>'
p301
ssg74
I322
sg75
(dp302
I320
S'        new_query, new_args = convert_paramstyle(paramstyle, operation, args)'
p303
sI321
S'        try:'
p304
sI322
S'            self.cursor.execute(new_query, *new_args)'
p305
sI323
S'        except ConnectionClosedError:'
p306
sI324
S"            # can't rollback in this case"
p307
sI325
S'            raise'
p308
sI326
S'        except:'
p309
sI317
S'        self._execute(operation, args)'
p310
sI318
S''
sI319
S'    def _execute(self, operation, args=()):'
p311
ssg87
S"(self=<gluon.contrib.pg8000.dbapi.CursorWrapper object>, operation='SELECT count(*) FROM ;', args=())"
p312
sg89
S'_execute'
p313
sa(dp314
g66
S'D:\\Desenvolvimento\\web2py\\gluon\\contrib\\pg8000\\interface.py'
p315
sg68
(dp316
S'x'
g109
sS'args'
p317
S'()'
p318
sS'builtintype'
p319
S"<type 'type'>"
p320
sS'self._stmt'
p321
S'<gluon.contrib.pg8000.interface.PreparedStatement object>'
p322
sS'self'
p323
S'<gluon.contrib.pg8000.interface.Cursor object>'
p324
sS'self.connection'
p325
S'<gluon.contrib.pg8000.interface.Connection object>'
p326
sS'global PreparedStatement'
p327
S"<class 'gluon.contrib.pg8000.interface.PreparedStatement'>"
p328
sS'statement_name'
p329
g109
sS'query'
p330
S"'SELECT count(*) FROM ;'"
p331
ssg74
I398
sg75
(dp332
I393
S'                # use PostgreSQL Simple Query Protocol'
p333
sI394
S'                ## print "SimpleQuery:", query'
p334
sI395
S'                self._stmt = SimpleStatement(self.connection, query)'
p335
sI396
S'            else:'
p336
sI397
S'                # use PostgreSQL Extended Query Protocol'
p337
sI398
S'                self._stmt = PreparedStatement(self.connection, query, statement_name="", *[{"type": type(x), "value": x} for x in args])'
p338
sI399
S'            self._stmt.execute(*args, **kwargs)'
p339
sI400
S'        finally:'
p340
sI401
S'            self.connection._unnamed_prepared_statement_lock.release()'
p341
sI402
S''
ssg87
S"(self=<gluon.contrib.pg8000.interface.Cursor object>, query='SELECT count(*) FROM ;', *args=(), **kwargs={})"
p342
sg89
g220
sa(dp343
g66
S'D:\\Desenvolvimento\\web2py\\gluon\\contrib\\pg8000\\interface.py'
p344
sg68
(dp345
S'self.c'
p346
S'<gluon.contrib.pg8000.protocol.Connection object>'
p347
sS'self'
p348
S'<gluon.contrib.pg8000.interface.PreparedStatement object>'
p349
sS'self.c.parse'
p350
S'<bound method Connection._fn of <gluon.contrib.pg8000.protocol.Connection object>>'
p351
sS'self._statement_name'
p352
S"''"
p353
sS'self._parse_row_desc'
p354
g109
sS'statement'
p355
S"'SELECT count(*) FROM ;'"
p356
sS'types'
p357
S'()'
p358
ssg74
I138
sg75
(dp359
I133
S'        self._statement_name = kwargs.get("statement_name", "pg8000_statement_%s" % self._statement_number)'
p360
sI134
S'        self._row_desc = None'
p361
sI135
S'        self._cached_rows = []'
p362
sI136
S'        self._ongoing_row_count = 0'
p363
sI137
S'        self._command_complete = True'
p364
sI138
S'        self._parse_row_desc = self.c.parse(self._statement_name, statement, types)'
p365
sI139
S'        self._lock = threading.RLock()'
p366
sI140
S''
sI141
S'    def close(self):'
p367
sI142
S'        if self._statement_name != "": # don\'t close unnamed statement'
p368
ssg87
S"(self=<gluon.contrib.pg8000.interface.PreparedStatement object>, connection=<gluon.contrib.pg8000.interface.Connection object>, statement='SELECT count(*) FROM ;', *types=(), **kwargs={'statement_name': ''})"
p369
sg89
g26
sa(dp370
g66
S'D:\\Desenvolvimento\\web2py\\gluon\\contrib\\pg8000\\protocol.py'
p371
sg68
(dp372
S'self'
p373
S'<gluon.contrib.pg8000.protocol.Connection object>'
p374
sS'args'
p375
S"('', 'SELECT count(*) FROM ;', ())"
p376
sS'fn'
p377
S'<function parse>'
p378
sS'kwargs'
p379
g21
ssg74
I943
sg75
(dp380
I938
S''
sI939
S'def sync_on_error(fn):'
p381
sI940
S'    def _fn(self, *args, **kwargs):'
p382
sI941
S'        try:'
p383
sI942
S'            self._sock_lock.acquire()'
p384
sI943
S'            return fn(self, *args, **kwargs)'
p385
sI944
S'        except:'
p386
sI945
S'            self._sync()'
p387
sI946
S'            raise'
p388
sI947
S'        finally:'
p389
ssg87
S"(self=<gluon.contrib.pg8000.protocol.Connection object>, *args=('', 'SELECT count(*) FROM ;', ()), **kwargs={})"
p390
sg89
g266
sa(dp391
g66
S'D:\\Desenvolvimento\\web2py\\gluon\\contrib\\pg8000\\protocol.py'
p392
sg68
(dp393
S'reader.handle_messages'
p394
S'<bound method MessageReader.handle_messages of <gluon.contrib.pg8000.protocol.MessageReader object>>'
p395
sS'reader'
p396
S'<gluon.contrib.pg8000.protocol.MessageReader object>'
p397
ssg74
I1104
sg75
(dp398
I1099
S'        reader.add_message(NoData, lambda msg: (None, param_fc))'
p399
sI1100
S''
sI1101
S'        # Common row description response'
p400
sI1102
S'        reader.add_message(RowDescription, lambda msg: (msg, param_fc))'
p401
sI1103
S''
sI1104
S'        return reader.handle_messages()'
p402
sI1105
S''
sI1106
S'    @sync_on_error'
p403
sI1107
S'    def bind(self, portal, statement, params, parse_data, copy_stream):'
p404
sI1108
S'        self.verifyState("ready")'
p405
ssg87
S"(self=<gluon.contrib.pg8000.protocol.Connection object>, statement='', qs='SELECT count(*) FROM ;', param_types=[])"
p406
sg89
S'parse'
p407
sa(dp408
g66
S'D:\\Desenvolvimento\\web2py\\gluon\\contrib\\pg8000\\protocol.py'
p409
sg68
(dp410
S'exc'
p411
S'ProgrammingError(\'ERROR\', \'42601\', \'syntax error at or near ";"\')'
p412
ssg74
I929
sg75
(dp413
I928
S'                if not self.delay_raising_exception:'
p414
sI929
S'                    raise exc'
p415
sI930
S'            elif isinstance(msg, NoticeResponse):'
p416
sI931
S'                self._conn.handleNoticeResponse(msg)'
p417
sI932
S'            elif isinstance(msg, ParameterStatus):'
p418
sI933
S'                self._conn.handleParameterStatus(msg)'
p419
sI924
S'            if msg_handled:'
p420
sI925
S'                continue'
p421
sI926
S'            elif isinstance(msg, ErrorResponse):'
p422
sI927
S'                exc = msg.createException()'
p423
ssg87
S'(self=<gluon.contrib.pg8000.protocol.MessageReader object>)'
p424
sg89
S'handle_messages'
p425
sasS'pyver'
p426
S'Python 2.7: C:\\Python27\\python.exe (prefix: C:\\Python27)'
p427
sS'session'
p428
g61
(S's9\x01\x00\x00<div><table><tr><td style="font-weight:bold;vertical-align:top;">last_orderby</td><td style="vertical-align:top;">:</td><td><div>None</div></td></tr><tr><td style="font-weight:bold;vertical-align:top;">last_query</td><td style="vertical-align:top;">:</td><td><div>db.paciente.id&gt;0</div></td></tr></table></div>'
tRp429
sS'etype'
p430
S"<class 'gluon.contrib.pg8000.errors.ProgrammingError'>"
p431
sS'date'
p432
S'Thu Dec 18 11:03:09 2014'
p433
sS'response'
p434
g61
(S's\xe62\x00\x00<div><table><tr><td style="font-weight:bold;vertical-align:top;">body</td><td style="vertical-align:top;">:</td><td><div>&lt;cStringIO.StringO object at 0x08448F80&gt;</div></td></tr><tr><td style="font-weight:bold;vertical-align:top;">cookies</td><td style="vertical-align:top;">:</td><td><div><table><tr><td style="font-weight:bold;vertical-align:top;">session_id_anestesia</td><td style="vertical-align:top;">:</td><td><div>127.0.0.1-f3e79e0a-00f4-4121-a50b-cf8a4b1af40b<table><tr><td style="font-weight:bold;vertical-align:top;">comment</td><td style="vertical-align:top;">:</td><td><div></div></td></tr><tr><td style="font-weight:bold;vertical-align:top;">domain</td><td style="vertical-align:top;">:</td><td><div></div></td></tr><tr><td style="font-weight:bold;vertical-align:top;">expires</td><td style="vertical-align:top;">:</td><td><div></div></td></tr><tr><td style="font-weight:bold;vertical-align:top;">httponly</td><td style="vertical-align:top;">:</td><td><div></div></td></tr><tr><td style="font-weight:bold;vertical-align:top;">max-age</td><td style="vertical-align:top;">:</td><td><div></div></td></tr><tr><td style="font-weight:bold;vertical-align:top;">path</td><td style="vertical-align:top;">:</td><td><div>/</div></td></tr><tr><td style="font-weight:bold;vertical-align:top;">secure</td><td style="vertical-align:top;">:</td><td><div></div></td></tr><tr><td style="font-weight:bold;vertical-align:top;">version</td><td style="vertical-align:top;">:</td><td><div></div></td></tr></table></div></td></tr></table></div></td></tr><tr><td style="font-weight:bold;vertical-align:top;">delimiters</td><td style="vertical-align:top;">:</td><td><div><table><tr><td><div>{{</div></td></tr><tr><td><div>}}</div></td></tr></table></div></td></tr><tr><td style="font-weight:bold;vertical-align:top;">files</td><td style="vertical-align:top;">:</td><td><div><table></table></div></td></tr><tr><td style="font-weight:bold;vertical-align:top;">flash</td><td style="vertical-align:top;">:</td><td><div></div></td></tr><tr><td style="font-weight:bold;vertical-align:top;">form_label_separator</td><td style="vertical-align:top;">:</td><td><div>: </div></td></tr><tr><td style="font-weight:bold;vertical-align:top;">formstyle</td><td style="vertical-align:top;">:</td><td><div>table3cols</div></td></tr><tr><td style="font-weight:bold;vertical-align:top;">generic_patterns</td><td style="vertical-align:top;">:</td><td><div><table><tr><td><div>*</div></td></tr></table></div></td></tr><tr><td style="font-weight:bold;vertical-align:top;">google_analytics_id</td><td style="vertical-align:top;">:</td><td><div>None</div></td></tr><tr><td style="font-weight:bold;vertical-align:top;">headers</td><td style="vertical-align:top;">:</td><td><div><table><tr><td style="font-weight:bold;vertical-align:top;">X-Powered-By</td><td style="vertical-align:top;">:</td><td><div>web2py</div></td></tr></table></div></td></tr><tr><td style="font-weight:bold;vertical-align:top;">logo</td><td style="vertical-align:top;">:</td><td><div><a class="brand" href="http://www.web2py.com/"><b>web<span>2</span>py</b>&trade;&nbsp;</a></div></td></tr><tr><td style="font-weight:bold;vertical-align:top;">menu</td><td style="vertical-align:top;">:</td><td><div><table><tr><td><div><table><tr><td><div>Principal</div></td></tr><tr><td><div>False</div></td></tr><tr><td><div>/anestesia/default/index</div></td></tr><tr><td><div><table></table></div></td></tr></table></div></td></tr><tr><td><div><table><tr><td><div><span class="highlighted">web2py</span></div></td></tr><tr><td><div>False</div></td></tr><tr><td><div>http://web2py.com</div></td></tr><tr><td><div><table><tr><td><div><table><tr><td><div>Meus sites</div></td></tr><tr><td><div>False</div></td></tr><tr><td><div>/admin/default/site</div></td></tr></table></div></td></tr><tr><td><div><table><tr><td><div>Esta aplica\xc3\xa7\xc3\xa3o</div></td></tr><tr><td><div>False</div></td></tr><tr><td><div>/admin/default/design/anestesia</div></td></tr><tr><td><div>[(&lt;lazyT &#x27;Controller&#x27;&gt;, False, &#x27;/admin/default/edit/anestesia/controllers/pagina_buscar.py&#x27;), (&lt;lazyT &#x27;View&#x27;&gt;, False, &#x27;/admin/default/edit/anestesia/views/pagina_buscar/index.html&#x27;), (&lt;lazyT &#x27;Layout&#x27;&gt;, False, &#x27;/admin/default/edit/anestesia/views/layout.html&#x27;), (&lt;lazyT &#x27;Stylesheet&#x27;&gt;, False, &#x27;/admin/default/edit/anestesia/static/css/web2py.css&#x27;), (&lt;lazyT &#x27;DB Model&#x27;&gt;, False, &#x27;/admin/default/edit/anestesia/models/db.py&#x27;), (&lt;lazyT &#x27;Menu Model&#x27;&gt;, False, &#x27;/admin/default/edit/anestesia/models/menu.py&#x27;), (&lt;lazyT &#x27;Database&#x27;&gt;, False, &#x27;/anestesia/appadmin/index&#x27;), (&lt;lazyT &#x27;Errors&#x27;&gt;, False, &#x27;/admin/default/errors/anestesia&#x27;), (&lt;lazyT &#x27;About&#x27;&gt;, False, &#x27;/admin/default/about/anestesia&#x27;)]</div></td></tr></table></div></td></tr><tr><td><div><table><tr><td><div>web2py.com</div></td></tr><tr><td><div>False</div></td></tr><tr><td><div>http://www.web2py.com</div></td></tr><tr><td><div>[(&lt;lazyT &#x27;Download&#x27;&gt;, False, &#x27;http://www.web2py.com/examples/default/download&#x27;), (&lt;lazyT &#x27;Support&#x27;&gt;, False, &#x27;http://www.web2py.com/examples/default/support&#x27;), (&lt;lazyT &#x27;Demo&#x27;&gt;, False, &#x27;http://web2py.com/demo_admin&#x27;), (&lt;lazyT &#x27;Quick Examples&#x27;&gt;, False, &#x27;http://web2py.com/examples/default/examples&#x27;), (&lt;lazyT &#x27;FAQ&#x27;&gt;, False, &#x27;http://web2py.com/AlterEgo&#x27;), (&lt;lazyT &#x27;Videos&#x27;&gt;, False, &#x27;http://www.web2py.com/examples/default/videos/&#x27;), (&lt;lazyT &#x27;Free Applications&#x27;&gt;, False, &#x27;http://web2py.com/appliances&#x27;), (&lt;lazyT &#x27;Plugins&#x27;&gt;, False, &#x27;http://web2py.com/plugins&#x27;), (&lt;lazyT &#x27;Layouts&#x27;&gt;, False, &#x27;http://web2py.com/layouts&#x27;), (&lt;lazyT &#x27;Recipes&#x27;&gt;, False, &#x27;http://web2pyslices.com/&#x27;), (&lt;lazyT &#x27;Semantic&#x27;&gt;, False, &#x27;http://web2py.com/semantic&#x27;)]</div></td></tr></table></div></td></tr><tr><td><div><table><tr><td><div>Documenta\xc3\xa7\xc3\xa3o</div></td></tr><tr><td><div>False</div></td></tr><tr><td><div>http://www.web2py.com/book</div></td></tr><tr><td><div>[(&lt;lazyT &#x27;Preface&#x27;&gt;, False, &#x27;http://www.web2py.com/book/default/chapter/00&#x27;), (&lt;lazyT &#x27;Introduction&#x27;&gt;, False, &#x27;http://www.web2py.com/book/default/chapter/01&#x27;), (&lt;lazyT &#x27;Python&#x27;&gt;, False, &#x27;http://www.web2py.com/book/default/chapter/02&#x27;), (&lt;lazyT &#x27;Overview&#x27;&gt;, False, &#x27;http://www.web2py.com/book/default/chapter/03&#x27;), (&lt;lazyT &#x27;The Core&#x27;&gt;, False, &#x27;http://www.web2py.com/book/default/chapter/04&#x27;), (&lt;lazyT &#x27;The Views&#x27;&gt;, False, &#x27;http://www.web2py.com/book/default/chapter/05&#x27;), (&lt;lazyT &#x27;Database&#x27;&gt;, False, &#x27;http://www.web2py.com/book/default/chapter/06&#x27;), (&lt;lazyT &#x27;Forms and Validators&#x27;&gt;, False, &#x27;http://www.web2py.com/book/default/chapter/07&#x27;), (&lt;lazyT &#x27;Email and SMS&#x27;&gt;, False, &#x27;http://www.web2py.com/book/default/chapter/08&#x27;), (&lt;lazyT &#x27;Access Control&#x27;&gt;, False, &#x27;http://www.web2py.com/book/default/chapter/09&#x27;), (&lt;lazyT &#x27;Services&#x27;&gt;, False, &#x27;http://www.web2py.com/book/default/chapter/10&#x27;), (&lt;lazyT &#x27;Ajax Recipes&#x27;&gt;, False, &#x27;http://www.web2py.com/book/default/chapter/11&#x27;), (&lt;lazyT &#x27;Components and Plugins&#x27;&gt;, False, &#x27;http://www.web2py.com/book/default/chapter/12&#x27;), (&lt;lazyT &#x27;Deployment Recipes&#x27;&gt;, False, &#x27;http://www.web2py.com/book/default/chapter/13&#x27;), (&lt;lazyT &#x27;Other Recipes&#x27;&gt;, False, &#x27;http://www.web2py.com/book/default/chapter/14&#x27;), (&lt;lazyT &#x27;Buy this book&#x27;&gt;, False, &#x27;http://stores.lulu.com/web2py&#x27;)]</div></td></tr></table></div></td></tr><tr><td><div><table><tr><td><div>Comunidade</div></td></tr><tr><td><div>False</div></td></tr><tr><td><div>None</div></td></tr><tr><td><div>[(&lt;lazyT &#x27;Groups&#x27;&gt;, False, &#x27;http://www.web2py.com/examples/default/usergroups&#x27;), (&lt;lazyT &#x27;Twitter&#x27;&gt;, False, &#x27;http://twitter.com/web2py&#x27;), (&lt;lazyT &#x27;Live Chat&#x27;&gt;, False, &#x27;http://webchat.freenode.net/?channels=web2py&#x27;)]</div></td></tr></table></div></td></tr><tr><td><div><table><tr><td><div>Plugins</div></td></tr><tr><td><div>False</div></td></tr><tr><td><div>None</div></td></tr><tr><td><div>[(&#x27;plugin_wiki&#x27;, False, &#x27;http://web2py.com/examples/default/download&#x27;), (&lt;lazyT &#x27;Other Plugins&#x27;&gt;, False, &#x27;http://web2py.com/plugins&#x27;), (&lt;lazyT &#x27;Layout Plugins&#x27;&gt;, False, &#x27;http://web2py.com/layouts&#x27;)]</div></td></tr></table></div></td></tr></table></div></td></tr></table></div></td></tr></table></div></td></tr><tr><td style="font-weight:bold;vertical-align:top;">meta</td><td style="vertical-align:top;">:</td><td><div><table><tr><td style="font-weight:bold;vertical-align:top;">author</td><td style="vertical-align:top;">:</td><td><div>Your Name &lt;you@example.com&gt;</div></td></tr><tr><td style="font-weight:bold;vertical-align:top;">generator</td><td style="vertical-align:top;">:</td><td><div>Web2py Web Framework</div></td></tr><tr><td style="font-weight:bold;vertical-align:top;">keywords</td><td style="vertical-align:top;">:</td><td><div>web2py, python, framework</div></td></tr></table></div></td></tr><tr><td style="font-weight:bold;vertical-align:top;">models_to_run</td><td style="vertical-align:top;">:</td><td><div><table><tr><td><div>^\\w+\\.py$</div></td></tr><tr><td><div>^pagina_buscar/\\w+\\.py$</div></td></tr><tr><td><div>^pagina_buscar/index/\\w+\\.py$</div></td></tr></table></div></td></tr><tr><td style="font-weight:bold;vertical-align:top;">postprocessing</td><td style="vertical-align:top;">:</td><td><div><table></table></div></td></tr><tr><td style="font-weight:bold;vertical-align:top;">session_client</td><td style="vertical-align:top;">:</td><td><div>127.0.0.1</div></td></tr><tr><td style="font-weight:bold;vertical-align:top;">session_cookie_compression_level</td><td style="vertical-align:top;">:</td><td><div>None</div></td></tr><tr><td style="font-weight:bold;vertical-align:top;">session_cookie_expires</td><td style="vertical-align:top;">:</td><td><div>None</div></td></tr><tr><td style="font-weight:bold;vertical-align:top;">session_cookie_key</td><td style="vertical-align:top;">:</td><td><div>None</div></td></tr><tr><td style="font-weight:bold;vertical-align:top;">session_data_name</td><td style="vertical-align:top;">:</td><td><div>session_data_anestesia</div></td></tr><tr><td style="font-weight:bold;vertical-align:top;">session_file</td><td style="vertical-align:top;">:</td><td><div>&lt;open file &#x27;D:\\Desenvolvimento\\web2py\\applications\\anestesia\\sessions\\138\\0b3\\127.0.0.1-f3e79e0a-00f4-4121-a50b-cf8a4b1af40b&#x27;, mode &#x27;rb+&#x27; at 0x08871B78&gt;</div></td></tr><tr><td style="font-weight:bold;vertical-align:top;">session_filename</td><td style="vertical-align:top;">:</td><td><div>D:\\Desenvolvimento\\web2py\\applications\\anestesia\\sessions\\127.0.0.1-f3e79e0a-00f4-4121-a50b-cf8a4b1af40b</div></td></tr><tr><td style="font-weight:bold;vertical-align:top;">session_hash</td><td style="vertical-align:top;">:</td><td><div>1904edfdd12e1568e4dc524ff2ad5474</div></td></tr><tr><td style="font-weight:bold;vertical-align:top;">session_id</td><td style="vertical-align:top;">:</td><td><div>127.0.0.1-f3e79e0a-00f4-4121-a50b-cf8a4b1af40b</div></td></tr><tr><td style="font-weight:bold;vertical-align:top;">session_id_name</td><td style="vertical-align:top;">:</td><td><div>session_id_anestesia</div></td></tr><tr><td style="font-weight:bold;vertical-align:top;">session_locked</td><td style="vertical-align:top;">:</td><td><div>True</div></td></tr><tr><td style="font-weight:bold;vertical-align:top;">session_masterapp</td><td style="vertical-align:top;">:</td><td><div>anestesia</div></td></tr><tr><td style="font-weight:bold;vertical-align:top;">session_new</td><td style="vertical-align:top;">:</td><td><div>False</div></td></tr><tr><td style="font-weight:bold;vertical-align:top;">session_storage_type</td><td style="vertical-align:top;">:</td><td><div>file</div></td></tr><tr><td style="font-weight:bold;vertical-align:top;">status</td><td style="vertical-align:top;">:</td><td><div>200</div></td></tr><tr><td style="font-weight:bold;vertical-align:top;">subtitle</td><td style="vertical-align:top;">:</td><td><div></div></td></tr><tr><td style="font-weight:bold;vertical-align:top;">title</td><td style="vertical-align:top;">:</td><td><div>Anestesia</div></td></tr><tr><td style="font-weight:bold;vertical-align:top;">view</td><td style="vertical-align:top;">:</td><td><div>pagina_buscar/index.html</div></td></tr></table></div>'
tRp435
sS'locals'
p436
(dp437
S'exc'
p438
S'ProgrammingError(\'ERROR\', \'42601\', \'syntax error at or near ";"\')'
p439
sS'msg_class'
p440
S"<class 'gluon.contrib.pg8000.protocol.RowDescription'>"
p441
sS'self'
p442
S'<gluon.contrib.pg8000.protocol.MessageReader object>'
p443
sg46
S'()'
p444
sS'handler'
p445
S'<function <lambda>>'
p446
sS'kwargs'
p447
g21
sS'msg'
p448
S'<ErrorResponse ERROR 42601 \'syntax error at or near ";"\'>'
p449
sS'msg_handled'
p450
S'False'
p451
sssS'traceback'
p452
S'Traceback (most recent call last):\n  File "D:\\Desenvolvimento\\web2py\\gluon\\restricted.py", line 224, in restricted\n    exec ccode in environment\n  File "D:\\Desenvolvimento\\web2py\\applications\\anestesia\\controllers/pagina_buscar.py", line 44, in <module>\n  File "D:\\Desenvolvimento\\web2py\\gluon\\globals.py", line 392, in <lambda>\n    self._caller = lambda f: f()\n  File "D:\\Desenvolvimento\\web2py\\applications\\anestesia\\controllers/pagina_buscar.py", line 40, in index\n    nr_linhas = conta_consulta(request.vars.nome_busca)\n  File "D:\\Desenvolvimento\\web2py\\applications\\anestesia\\controllers/pagina_buscar.py", line 28, in conta_consulta\n    nr_linhas = db(query).count()\n  File "D:\\Desenvolvimento\\web2py\\gluon\\dal.py", line 10739, in count\n    return db._adapter.count(self.query, distinct)\n  File "D:\\Desenvolvimento\\web2py\\gluon\\dal.py", line 1901, in count\n    self.execute(self._count(query, distinct))\n  File "D:\\Desenvolvimento\\web2py\\gluon\\dal.py", line 1967, in execute\n    return self.log_execute(*a, **b)\n  File "D:\\Desenvolvimento\\web2py\\gluon\\dal.py", line 1961, in log_execute\n    ret = self.cursor.execute(command, *a[1:], **b)\n  File "D:\\Desenvolvimento\\web2py\\gluon\\contrib\\pg8000\\dbapi.py", line 246, in _fn\n    return fn(self, *args, **kwargs)\n  File "D:\\Desenvolvimento\\web2py\\gluon\\contrib\\pg8000\\dbapi.py", line 317, in execute\n    self._execute(operation, args)\n  File "D:\\Desenvolvimento\\web2py\\gluon\\contrib\\pg8000\\dbapi.py", line 322, in _execute\n    self.cursor.execute(new_query, *new_args)\n  File "D:\\Desenvolvimento\\web2py\\gluon\\contrib\\pg8000\\interface.py", line 398, in execute\n    self._stmt = PreparedStatement(self.connection, query, statement_name="", *[{"type": type(x), "value": x} for x in args])\n  File "D:\\Desenvolvimento\\web2py\\gluon\\contrib\\pg8000\\interface.py", line 138, in __init__\n    self._parse_row_desc = self.c.parse(self._statement_name, statement, types)\n  File "D:\\Desenvolvimento\\web2py\\gluon\\contrib\\pg8000\\protocol.py", line 943, in _fn\n    return fn(self, *args, **kwargs)\n  File "D:\\Desenvolvimento\\web2py\\gluon\\contrib\\pg8000\\protocol.py", line 1104, in parse\n    return reader.handle_messages()\n  File "D:\\Desenvolvimento\\web2py\\gluon\\contrib\\pg8000\\protocol.py", line 929, in handle_messages\n    raise exc\nProgrammingError: (\'ERROR\', \'42601\', \'syntax error at or near ";"\')\n'
p453
s.