(dp1
S'output'
p2
S'<class \'gluon.contrib.pg8000.errors.ProgrammingError\'> (\'ERROR\', \'42601\', \'syntax error at or near "+"\')'
p3
sS'layer'
p4
S'D:\\Desenvolvimento\\web2py\\applications\\anestesia\\models\\db.py'
p5
sS'code'
p6
S"# -*- coding: utf-8 -*-\n\n#########################################################################\n## This scaffolding model makes your app work on Google App Engine too\n## File is released under public domain and you can use without limitations\n#########################################################################\n\n## if SSL/HTTPS is properly configured and you want all HTTP requests to\n## be redirected to HTTPS, uncomment the line below:\n# request.requires_https()\n\nif not request.env.web2py_runtime_gae:\n    ## if NOT running on Google App Engine use SQLite or other DB\n    #db = DAL('sqlite://storage.sqlite',pool_size=1,check_reserved=['all'])\n    db = DAL('postgres://postgres:devdtic2@teste.sistemas.unirio.br:5432/anestesia')\nelse:\n    ## connect to Google BigTable (optional 'google:datastore://namespace')\n    db = DAL('google:datastore+ndb')\n    ## store sessions and tickets there\n    session.connect(request, response, db=db)\n    ## or store session in Memcache, Redis, etc.\n    ## from gluon.contrib.memdb import MEMDB\n    ## from google.appengine.api.memcache import Client\n    ## session.connect(request, response, db = MEMDB(Client()))\n\n## by default give a view/generic.extension to all actions from localhost\n## none otherwise. a pattern can be 'controller/function.extension'\nresponse.generic_patterns = ['*'] if request.is_local else []\n\n## (optional) optimize handling of static files\n# response.optimize_css = 'concat,minify,inline'\n# response.optimize_js = 'concat,minify,inline'\n## (optional) static assets folder versioning\n# response.static_version = '0.0.0'\n#########################################################################\n## Here is sample code if you need for\n## - email capabilities\n## - authentication (registration, login, logout, ... )\n## - authorization (role based authorization)\n## - services (xml, csv, json, xmlrpc, jsonrpc, amf, rss)\n## - old style crud actions\n## (more options discussed in gluon/tools.py)\n#########################################################################\n\nfrom gluon.tools import Auth, Service, PluginManager\n\nauth = Auth(db)\nservice = Service()\nplugins = PluginManager()\n\n## create all tables needed by auth if not custom tables\nauth.define_tables(username=False, signature=False)\n\n## configure email\nmail = auth.settings.mailer\nmail.settings.server = 'logging' if request.is_local else 'smtp.gmail.com:587'\nmail.settings.sender = 'you@gmail.com'\nmail.settings.login = 'username:password'\n\n## configure auth policy\nauth.settings.registration_requires_verification = False\nauth.settings.registration_requires_approval = False\nauth.settings.reset_password_requires_verification = True\n\n## if you need to use OpenID, Facebook, MySpace, Twitter, Linkedin, etc.\n## register with janrain.com, write your domain:api_key in private/janrain.key\nfrom gluon.contrib.login_methods.janrain_account import use_janrain\nuse_janrain(auth, filename='private/janrain.key')\n\n#########################################################################\n## Define your tables below (or better in another model file) for example\n##\n## >>> db.define_table('mytable',Field('myfield','string'))\n##\n## Fields can be 'string','text','password','integer','double','boolean'\n##       'date','time','datetime','blob','upload', 'reference TABLENAME'\n## There is an implicit 'id integer autoincrement' field\n## Consult manual for more options, validators, etc.\n##\n## More API examples for controllers:\n##\n## >>> db.mytable.insert(myfield='value')\n## >>> rows=db(db.mytable.myfield=='value').select(db.mytable.ALL)\n## >>> for row in rows: print row.id, row.myfield\n#########################################################################\n\n## after defining tables, uncomment below to enable auditing\n# auth.enable_record_versioning(db)\n\ndb.define_table('paciente',\n                    Field('nr_registro', 'integer'),\n                    Field('matricula_hugg', 'integer'),\n                    Field('nome', 'string'),\n                    Field('data', 'date'),\n                    Field('ficha_nr', 'integer'),\n                    Field('enfermaria', 'string'),\n                    Field('leito', 'string'),\n                    Field('idade', 'integer'),\n                    Field('asa'),\n                    Field('clinica', 'string'),\n                    Field('so'),\n                    Field('dados_cadastrais_e', 'boolean'),\n                    Field('dados_cadastrais_sexo', 'string'),\n                    Field('altura', 'double'),\n                    Field('peso', 'double'),\n                    Field('temperatura', 'double'),\n                    Field('pulso', 'integer'),\n                    Field('respiracao', 'integer'),\n                    Field('pa'),\n                    Field('diagnostico', 'string'),\n                    Field('cirurgia', 'string'),\n                    Field('tabagismo', 'boolean'),\n                    Field('asma', 'boolean'),\n                    Field('tosse', 'boolean'),\n                    Field('dpoc', 'boolean'),\n                    Field('bk_insuficiencia', 'boolean'),\n                    Field('derrame_pleural', 'boolean'),\n                    Field('circunferencia_toraxica', 'boolean'),\n                    Field('has', 'boolean'),\n                    Field('icc', 'boolean'),\n                    Field('anglina', 'boolean'),\n                    Field('iam', 'boolean'),\n                    Field('valvulopalla', 'boolean'),\n                    Field('marcapasso', 'boolean'),\n                    Field('arritmias', 'boolean'),\n                    Field('insuf_venosa', 'boolean'),\n                    Field('diabetes', 'boolean'),\n                    Field('hipertireoidismo', 'boolean'),\n                    Field('endocrinopalias', 'boolean'),\n                    Field('cirrose', 'boolean'),\n                    Field('hepatite_a', 'boolean'),\n                    Field('hepatite_b', 'boolean'),\n                    Field('hepatite_c', 'boolean'),\n                    Field('elilismo', 'boolean'),\n                    Field('hiv', 'boolean'),\n                    Field('infeccoes_oportunistas', 'boolean'),\n                    Field('insuf_renal', 'boolean'),\n                    Field('hemodialise_peritoneal', 'boolean'),\n                    Field('disturbios_hemorragicos', 'boolean'),\n                    Field('avc_previo', 'boolean'),\n                    Field('doencas_psiquiatricas', 'boolean'),\n                    Field('doencas_neuromuscular', 'boolean'),\n                    Field('doencas_reumaticas', 'boolean'),\n                    Field('alteracao_neurologica', 'boolean'),\n                    Field('hemotransfusao_previa', 'boolean'),\n                    Field('obs_gerais', 'text'),\n                    Field('medicamentos_em_uso', 'string'),\n                    Field('alergias', 'string'),\n                    Field('cirurgias_previas', 'boolean'),\n                    Field('mallapati', 'string'),\n                    Field('abertura_boca', 'boolean'),\n                    Field('dentes_falhos', 'boolean'),\n                    Field('protese', 'boolean'),\n                    Field('macroglossia', 'boolean'),\n                    Field('distancia_esterno_mento', 'string'),\n                    Field('pescoco_curto_longo', 'string'),\n                    Field('mobilidade_cervical', 'string'),\n                    Field('massa_cervical', 'boolean'),\n                    Field('desvio_traqueia', 'boolean'),\n                    Field('distancia_mento_hiloide', 'boolean'),\n                    Field('circunferencia_cervical', 'boolean'),\n                    Field('dificuldade_intubacao', 'boolean'),\n                    Field('via_aerea_dificil', 'boolean'),\n                    Field('historia_de_anafilaxia', 'boolean'),\n                    Field('estomago_cheio', 'boolean'),\n                    Field('corticoide', 'boolean'),\n                    Field('endocardite_bacteriana', 'boolean'),\n                    Field('hb', 'string'),\n                    Field('ht', 'string'),\n                    Field('hm', 'string'),\n                    Field('plaquetas', 'string'),\n                    Field('glicose', 'string'),\n                    Field('u', 'string'),\n                    Field('cr', 'string'),\n                    Field('na+', 'string'),\n                    Field('k+', 'string'),\n                    Field('duracao_procedimento', 'string'),\n                    Field('duracao_cirurgia', 'string'),\n                    Field('cardioscopio', 'boolean'),\n                    Field('ox_digital', 'boolean'),\n                    Field('pni', 'boolean'),\n                    Field('painv', 'boolean'),\n                    Field('capnografo', 'boolean'),\n                    Field('an_gases', 'boolean'),\n                    Field('outros_monitorizacao', 'string'),\n                    Field('tec_geral', 'boolean'),\n                    Field('plexo', 'boolean'),\n                    Field('bloqueio_neuroeixo', 'boolean'),\n                    Field('combinada', 'boolean'),\n                    Field('sedacao', 'boolean'),\n                    Field('sub_mascara', 'boolean'),\n                    Field('canula_naso', 'boolean'),\n                    Field('canula_orofaringea', 'boolean'),\n                    Field('mascara_laringea', 'boolean'),\n                    Field('nr_mascara_laringea', 'string'),\n                    Field('intubacao_oro_traqueal', 'boolean'),\n                    Field('tipo_naso', 'boolean'),\n                    Field('tipo_aramado', 'boolean'),\n                    Field('dupla_luz', 'boolean'),\n                    Field('balao', 'boolean'),\n                    Field('laringoscopia', 'boolean'),\n                    Field('broncofibroscopia', 'boolean'),\n                    Field('estilete_luminoso', 'boolean'),\n                    Field('videolaringoscopia', 'boolean'),\n                    Field('cirurgia', 'string'),\n                    Field('anestesia', 'string'),\n                    Field('cirurgiao', 'string'),\n                    )\n\ndb.paciente.nome.requires = IS_NOT_EMPTY(error_message='O Nome n\xc3\xa3o pode estar sem preenchimento.')\ndb.paciente.matricula_hugg.requires = IS_NOT_EMPTY()"
p7
sS'snapshot'
p8
(dp9
S'exception'
p10
(dp11
S'__module__'
p12
S"'gluon.contrib.pg8000.errors'"
p13
sS'__getslice__'
p14
S"<method-wrapper '__getslice__' of ProgrammingError object>"
p15
sS'__str__'
p16
S"<method-wrapper '__str__' of ProgrammingError object>"
p17
sS'__reduce__'
p18
S'<built-in method __reduce__ of ProgrammingError object>'
p19
sS'__dict__'
p20
S'{}'
p21
sS'__sizeof__'
p22
S'<built-in method __sizeof__ of ProgrammingError object>'
p23
sS'__weakref__'
p24
S'None'
p25
sS'__init__'
p26
S"<method-wrapper '__init__' of ProgrammingError object>"
p27
sS'__setattr__'
p28
S"<method-wrapper '__setattr__' of ProgrammingError object>"
p29
sS'__reduce_ex__'
p30
S'<built-in method __reduce_ex__ of ProgrammingError object>'
p31
sS'__new__'
p32
S'<built-in method __new__ of type object>'
p33
sS'__format__'
p34
S'<built-in method __format__ of ProgrammingError object>'
p35
sS'__class__'
p36
S"<class 'gluon.contrib.pg8000.errors.ProgrammingError'>"
p37
sS'__doc__'
p38
S'None'
p39
sS'__getitem__'
p40
S"<method-wrapper '__getitem__' of ProgrammingError object>"
p41
sS'__setstate__'
p42
S'<built-in method __setstate__ of ProgrammingError object>'
p43
sS'__getattribute__'
p44
S"<method-wrapper '__getattribute__' of ProgrammingError object>"
p45
sS'args'
p46
S'(\'ERROR\', \'42601\', \'syntax error at or near "+"\')'
p47
sS'__subclasshook__'
p48
S'<built-in method __subclasshook__ of type object>'
p49
sS'__unicode__'
p50
S'<built-in method __unicode__ of ProgrammingError object>'
p51
sS'__delattr__'
p52
S"<method-wrapper '__delattr__' of ProgrammingError object>"
p53
sS'__repr__'
p54
S"<method-wrapper '__repr__' of ProgrammingError object>"
p55
sS'__hash__'
p56
S"<method-wrapper '__hash__' of ProgrammingError object>"
p57
ssS'evalue'
p58
S'(\'ERROR\', \'42601\', \'syntax error at or near "+"\')'
p59
sS'request'
p60
cgluon.html
XML_unpickle
p61
(S's:\xb4\x00\x00<div><table><tr><td style="font-weight:bold;vertical-align:top;">ajax</td><td style="vertical-align:top;">:</td><td><div>False</div></td></tr><tr><td style="font-weight:bold;vertical-align:top;">application</td><td style="vertical-align:top;">:</td><td><div>anestesia</div></td></tr><tr><td style="font-weight:bold;vertical-align:top;">args</td><td style="vertical-align:top;">:</td><td><div><table></table></div></td></tr><tr><td style="font-weight:bold;vertical-align:top;">cid</td><td style="vertical-align:top;">:</td><td><div>None</div></td></tr><tr><td style="font-weight:bold;vertical-align:top;">client</td><td style="vertical-align:top;">:</td><td><div>127.0.0.1</div></td></tr><tr><td style="font-weight:bold;vertical-align:top;">controller</td><td style="vertical-align:top;">:</td><td><div>pagina_incluir</div></td></tr><tr><td style="font-weight:bold;vertical-align:top;">cookies</td><td style="vertical-align:top;">:</td><td><div><table><tr><td style="font-weight:bold;vertical-align:top;">session_data_examples</td><td style="vertical-align:top;">:</td><td><div>a632629af9fb55f9fa76a3571908672d:sN1Elcivdjn9AEoZt6p9CH1OYrd76hTOUSbiLoxyR_yP3VUKl1SZjORiT_6q2TsxL5KRFbKY7XlUqLQ8qUQ9fdKSc6SQwqz_hs_xRWB1svIa4GO-qZqNh0xkugb0opWHtCh3BhX5xMfeMOBP2L6lUMmh1yUcuvaOH6visCdSEsDn4ByzGUN5ylEsNFejbxELSaAOwlYRb4roFr9TXARwSQ0S6u7zw0eItm2g8Z9bm7H55aH4W870LM4wPH3cOGqzJmQwzbOivkXCtr0z5-WQ_HDnS1WI3ZTDruG4FQa_MF9avDDeu6JZ8vLf9CeyaUOT<table><tr><td style="font-weight:bold;vertical-align:top;">comment</td><td style="vertical-align:top;">:</td><td><div></div></td></tr><tr><td style="font-weight:bold;vertical-align:top;">domain</td><td style="vertical-align:top;">:</td><td><div></div></td></tr><tr><td style="font-weight:bold;vertical-align:top;">expires</td><td style="vertical-align:top;">:</td><td><div></div></td></tr><tr><td style="font-weight:bold;vertical-align:top;">httponly</td><td style="vertical-align:top;">:</td><td><div></div></td></tr><tr><td style="font-weight:bold;vertical-align:top;">max-age</td><td style="vertical-align:top;">:</td><td><div></div></td></tr><tr><td style="font-weight:bold;vertical-align:top;">path</td><td style="vertical-align:top;">:</td><td><div></div></td></tr><tr><td style="font-weight:bold;vertical-align:top;">secure</td><td style="vertical-align:top;">:</td><td><div></div></td></tr><tr><td style="font-weight:bold;vertical-align:top;">version</td><td style="vertical-align:top;">:</td><td><div></div></td></tr></table></div></td></tr><tr><td style="font-weight:bold;vertical-align:top;">session_id_admin</td><td style="vertical-align:top;">:</td><td><div>127.0.0.1-8821195d-d852-402b-9210-e24638d99d35<table><tr><td style="font-weight:bold;vertical-align:top;">comment</td><td style="vertical-align:top;">:</td><td><div></div></td></tr><tr><td style="font-weight:bold;vertical-align:top;">domain</td><td style="vertical-align:top;">:</td><td><div></div></td></tr><tr><td style="font-weight:bold;vertical-align:top;">expires</td><td style="vertical-align:top;">:</td><td><div></div></td></tr><tr><td style="font-weight:bold;vertical-align:top;">httponly</td><td style="vertical-align:top;">:</td><td><div></div></td></tr><tr><td style="font-weight:bold;vertical-align:top;">max-age</td><td style="vertical-align:top;">:</td><td><div></div></td></tr><tr><td style="font-weight:bold;vertical-align:top;">path</td><td style="vertical-align:top;">:</td><td><div></div></td></tr><tr><td style="font-weight:bold;vertical-align:top;">secure</td><td style="vertical-align:top;">:</td><td><div></div></td></tr><tr><td style="font-weight:bold;vertical-align:top;">version</td><td style="vertical-align:top;">:</td><td><div></div></td></tr></table></div></td></tr><tr><td style="font-weight:bold;vertical-align:top;">session_id_anestesia</td><td style="vertical-align:top;">:</td><td><div>127.0.0.1-f3e79e0a-00f4-4121-a50b-cf8a4b1af40b<table><tr><td style="font-weight:bold;vertical-align:top;">comment</td><td style="vertical-align:top;">:</td><td><div></div></td></tr><tr><td style="font-weight:bold;vertical-align:top;">domain</td><td style="vertical-align:top;">:</td><td><div></div></td></tr><tr><td style="font-weight:bold;vertical-align:top;">expires</td><td style="vertical-align:top;">:</td><td><div></div></td></tr><tr><td style="font-weight:bold;vertical-align:top;">httponly</td><td style="vertical-align:top;">:</td><td><div></div></td></tr><tr><td style="font-weight:bold;vertical-align:top;">max-age</td><td style="vertical-align:top;">:</td><td><div></div></td></tr><tr><td style="font-weight:bold;vertical-align:top;">path</td><td style="vertical-align:top;">:</td><td><div></div></td></tr><tr><td style="font-weight:bold;vertical-align:top;">secure</td><td style="vertical-align:top;">:</td><td><div></div></td></tr><tr><td style="font-weight:bold;vertical-align:top;">version</td><td style="vertical-align:top;">:</td><td><div></div></td></tr></table></div></td></tr><tr><td style="font-weight:bold;vertical-align:top;">session_id_controle</td><td style="vertical-align:top;">:</td><td><div>127.0.0.1-8d5cd6e4-1136-46a7-8777-e2dc8b975cc3<table><tr><td style="font-weight:bold;vertical-align:top;">comment</td><td style="vertical-align:top;">:</td><td><div></div></td></tr><tr><td style="font-weight:bold;vertical-align:top;">domain</td><td style="vertical-align:top;">:</td><td><div></div></td></tr><tr><td style="font-weight:bold;vertical-align:top;">expires</td><td style="vertical-align:top;">:</td><td><div></div></td></tr><tr><td style="font-weight:bold;vertical-align:top;">httponly</td><td style="vertical-align:top;">:</td><td><div></div></td></tr><tr><td style="font-weight:bold;vertical-align:top;">max-age</td><td style="vertical-align:top;">:</td><td><div></div></td></tr><tr><td style="font-weight:bold;vertical-align:top;">path</td><td style="vertical-align:top;">:</td><td><div></div></td></tr><tr><td style="font-weight:bold;vertical-align:top;">secure</td><td style="vertical-align:top;">:</td><td><div></div></td></tr><tr><td style="font-weight:bold;vertical-align:top;">version</td><td style="vertical-align:top;">:</td><td><div></div></td></tr></table></div></td></tr><tr><td style="font-weight:bold;vertical-align:top;">session_id_examples</td><td style="vertical-align:top;">:</td><td><div>True<table><tr><td style="font-weight:bold;vertical-align:top;">comment</td><td style="vertical-align:top;">:</td><td><div></div></td></tr><tr><td style="font-weight:bold;vertical-align:top;">domain</td><td style="vertical-align:top;">:</td><td><div></div></td></tr><tr><td style="font-weight:bold;vertical-align:top;">expires</td><td style="vertical-align:top;">:</td><td><div></div></td></tr><tr><td style="font-weight:bold;vertical-align:top;">httponly</td><td style="vertical-align:top;">:</td><td><div></div></td></tr><tr><td style="font-weight:bold;vertical-align:top;">max-age</td><td style="vertical-align:top;">:</td><td><div></div></td></tr><tr><td style="font-weight:bold;vertical-align:top;">path</td><td style="vertical-align:top;">:</td><td><div></div></td></tr><tr><td style="font-weight:bold;vertical-align:top;">secure</td><td style="vertical-align:top;">:</td><td><div></div></td></tr><tr><td style="font-weight:bold;vertical-align:top;">version</td><td style="vertical-align:top;">:</td><td><div></div></td></tr></table></div></td></tr><tr><td style="font-weight:bold;vertical-align:top;">session_id_formulario</td><td style="vertical-align:top;">:</td><td><div>127.0.0.1-ad3203e2-ca0b-480a-bc23-84d358ff6197<table><tr><td style="font-weight:bold;vertical-align:top;">comment</td><td style="vertical-align:top;">:</td><td><div></div></td></tr><tr><td style="font-weight:bold;vertical-align:top;">domain</td><td style="vertical-align:top;">:</td><td><div></div></td></tr><tr><td style="font-weight:bold;vertical-align:top;">expires</td><td style="vertical-align:top;">:</td><td><div></div></td></tr><tr><td style="font-weight:bold;vertical-align:top;">httponly</td><td style="vertical-align:top;">:</td><td><div></div></td></tr><tr><td style="font-weight:bold;vertical-align:top;">max-age</td><td style="vertical-align:top;">:</td><td><div></div></td></tr><tr><td style="font-weight:bold;vertical-align:top;">path</td><td style="vertical-align:top;">:</td><td><div></div></td></tr><tr><td style="font-weight:bold;vertical-align:top;">secure</td><td style="vertical-align:top;">:</td><td><div></div></td></tr><tr><td style="font-weight:bold;vertical-align:top;">version</td><td style="vertical-align:top;">:</td><td><div></div></td></tr></table></div></td></tr><tr><td style="font-weight:bold;vertical-align:top;">session_id_myapp</td><td style="vertical-align:top;">:</td><td><div>127.0.0.1-dd8a077d-66b1-4b2d-808d-5213f9618b8a<table><tr><td style="font-weight:bold;vertical-align:top;">comment</td><td style="vertical-align:top;">:</td><td><div></div></td></tr><tr><td style="font-weight:bold;vertical-align:top;">domain</td><td style="vertical-align:top;">:</td><td><div></div></td></tr><tr><td style="font-weight:bold;vertical-align:top;">expires</td><td style="vertical-align:top;">:</td><td><div></div></td></tr><tr><td style="font-weight:bold;vertical-align:top;">httponly</td><td style="vertical-align:top;">:</td><td><div></div></td></tr><tr><td style="font-weight:bold;vertical-align:top;">max-age</td><td style="vertical-align:top;">:</td><td><div></div></td></tr><tr><td style="font-weight:bold;vertical-align:top;">path</td><td style="vertical-align:top;">:</td><td><div></div></td></tr><tr><td style="font-weight:bold;vertical-align:top;">secure</td><td style="vertical-align:top;">:</td><td><div></div></td></tr><tr><td style="font-weight:bold;vertical-align:top;">version</td><td style="vertical-align:top;">:</td><td><div></div></td></tr></table></div></td></tr><tr><td style="font-weight:bold;vertical-align:top;">session_id_myappzero</td><td style="vertical-align:top;">:</td><td><div>127.0.0.1-41ad397c-50c5-4858-9e39-6c5ae8bdc5a1<table><tr><td style="font-weight:bold;vertical-align:top;">comment</td><td style="vertical-align:top;">:</td><td><div></div></td></tr><tr><td style="font-weight:bold;vertical-align:top;">domain</td><td style="vertical-align:top;">:</td><td><div></div></td></tr><tr><td style="font-weight:bold;vertical-align:top;">expires</td><td style="vertical-align:top;">:</td><td><div></div></td></tr><tr><td style="font-weight:bold;vertical-align:top;">httponly</td><td style="vertical-align:top;">:</td><td><div></div></td></tr><tr><td style="font-weight:bold;vertical-align:top;">max-age</td><td style="vertical-align:top;">:</td><td><div></div></td></tr><tr><td style="font-weight:bold;vertical-align:top;">path</td><td style="vertical-align:top;">:</td><td><div></div></td></tr><tr><td style="font-weight:bold;vertical-align:top;">secure</td><td style="vertical-align:top;">:</td><td><div></div></td></tr><tr><td style="font-weight:bold;vertical-align:top;">version</td><td style="vertical-align:top;">:</td><td><div></div></td></tr></table></div></td></tr><tr><td style="font-weight:bold;vertical-align:top;">session_id_voto</td><td style="vertical-align:top;">:</td><td><div>127.0.0.1-8786c067-43b4-459a-8441-749730cd2042<table><tr><td style="font-weight:bold;vertical-align:top;">comment</td><td style="vertical-align:top;">:</td><td><div></div></td></tr><tr><td style="font-weight:bold;vertical-align:top;">domain</td><td style="vertical-align:top;">:</td><td><div></div></td></tr><tr><td style="font-weight:bold;vertical-align:top;">expires</td><td style="vertical-align:top;">:</td><td><div></div></td></tr><tr><td style="font-weight:bold;vertical-align:top;">httponly</td><td style="vertical-align:top;">:</td><td><div></div></td></tr><tr><td style="font-weight:bold;vertical-align:top;">max-age</td><td style="vertical-align:top;">:</td><td><div></div></td></tr><tr><td style="font-weight:bold;vertical-align:top;">path</td><td style="vertical-align:top;">:</td><td><div></div></td></tr><tr><td style="font-weight:bold;vertical-align:top;">secure</td><td style="vertical-align:top;">:</td><td><div></div></td></tr><tr><td style="font-weight:bold;vertical-align:top;">version</td><td style="vertical-align:top;">:</td><td><div></div></td></tr></table></div></td></tr><tr><td style="font-weight:bold;vertical-align:top;">session_id_welcome</td><td style="vertical-align:top;">:</td><td><div>127.0.0.1-681ee77d-187b-4fb2-9d07-b68d64a9a1e4<table><tr><td style="font-weight:bold;vertical-align:top;">comment</td><td style="vertical-align:top;">:</td><td><div></div></td></tr><tr><td style="font-weight:bold;vertical-align:top;">domain</td><td style="vertical-align:top;">:</td><td><div></div></td></tr><tr><td style="font-weight:bold;vertical-align:top;">expires</td><td style="vertical-align:top;">:</td><td><div></div></td></tr><tr><td style="font-weight:bold;vertical-align:top;">httponly</td><td style="vertical-align:top;">:</td><td><div></div></td></tr><tr><td style="font-weight:bold;vertical-align:top;">max-age</td><td style="vertical-align:top;">:</td><td><div></div></td></tr><tr><td style="font-weight:bold;vertical-align:top;">path</td><td style="vertical-align:top;">:</td><td><div></div></td></tr><tr><td style="font-weight:bold;vertical-align:top;">secure</td><td style="vertical-align:top;">:</td><td><div></div></td></tr><tr><td style="font-weight:bold;vertical-align:top;">version</td><td style="vertical-align:top;">:</td><td><div></div></td></tr></table></div></td></tr></table></div></td></tr><tr><td style="font-weight:bold;vertical-align:top;">env</td><td style="vertical-align:top;">:</td><td><div><table><tr><td style="font-weight:bold;vertical-align:top;">HTTP_ACCEPT</td><td style="vertical-align:top;">:</td><td><div>text/html,application/xhtml+xml,application/xml;q=0.9,image/webp,*/*;q=0.8</div></td></tr><tr><td style="font-weight:bold;vertical-align:top;">HTTP_ACCEPT_ENCODING</td><td style="vertical-align:top;">:</td><td><div>gzip, deflate, sdch</div></td></tr><tr><td style="font-weight:bold;vertical-align:top;">HTTP_ACCEPT_LANGUAGE</td><td style="vertical-align:top;">:</td><td><div>pt-BR,pt;q=0.8,en-US;q=0.6,en;q=0.4</div></td></tr><tr><td style="font-weight:bold;vertical-align:top;">HTTP_CACHE_CONTROL</td><td style="vertical-align:top;">:</td><td><div>max-age=0</div></td></tr><tr><td style="font-weight:bold;vertical-align:top;">HTTP_CONNECTION</td><td style="vertical-align:top;">:</td><td><div>keep-alive</div></td></tr><tr><td style="font-weight:bold;vertical-align:top;">HTTP_COOKIE</td><td style="vertical-align:top;">:</td><td><div>session_data_examples=&quot;a632629af9fb55f9fa76a3571908672d:sN1Elcivdjn9AEoZt6p9CH1OYrd76hTOUSbiLoxyR_yP3VUKl1SZjORiT_6q2TsxL5KRFbKY7XlUqLQ8qUQ9fdKSc6SQwqz_hs_xRWB1svIa4GO-qZqNh0xkugb0opWHtCh3BhX5xMfeMOBP2L6lUMmh1yUcuvaOH6visCdSEsDn4ByzGUN5ylEsNFejbxELSaAOwlYRb4roFr9TXARwSQ0S6u7zw0eItm2g8Z9bm7H55aH4W870LM4wPH3cOGqzJmQwzbOivkXCtr0z5-WQ_HDnS1WI3ZTDruG4FQa_MF9avDDeu6JZ8vLf9CeyaUOT&quot;; session_id_examples=True; session_id_myappzero=127.0.0.1-41ad397c-50c5-4858-9e39-6c5ae8bdc5a1; session_id_voto=127.0.0.1-8786c067-43b4-459a-8441-749730cd2042; session_id_myapp=127.0.0.1-dd8a077d-66b1-4b2d-808d-5213f9618b8a; session_id_formulario=127.0.0.1-ad3203e2-ca0b-480a-bc23-84d358ff6197; session_id_controle=127.0.0.1-8d5cd6e4-1136-46a7-8777-e2dc8b975cc3; session_id_welcome=127.0.0.1-681ee77d-187b-4fb2-9d07-b68d64a9a1e4; session_id_admin=127.0.0.1-8821195d-d852-402b-9210-e24638d99d35; session_id_anestesia=127.0.0.1-f3e79e0a-00f4-4121-a50b-cf8a4b1af40b</div></td></tr><tr><td style="font-weight:bold;vertical-align:top;">HTTP_HOST</td><td style="vertical-align:top;">:</td><td><div>127.0.0.1:8000</div></td></tr><tr><td style="font-weight:bold;vertical-align:top;">HTTP_REFERER</td><td style="vertical-align:top;">:</td><td><div>http://127.0.0.1:8000/anestesia/pagina_incluir?nr_registro=123&amp;nome=Nail+Mohamed+Saber+Abdo+Bekhit&amp;data=&amp;ficha_nr=&amp;enfermaria=&amp;leito=&amp;idade=&amp;asa=&amp;clinica=&amp;so=&amp;dados_cadastrais_e=nao&amp;dados_cadastrais_sexo=M&amp;altura=&amp;peso=&amp;temperatura=&amp;pulso=&amp;respiracao=&amp;pa=&amp;diagnostico=&amp;cirurgia=&amp;tabagismo=nao&amp;asma=nao&amp;tosse=nao&amp;dpoc=nao&amp;bk_insuficiencia=nao&amp;derrame_pleural=nao&amp;circunferencia_toraxica=nao&amp;has=nao&amp;icc=nao&amp;anglina=nao&amp;iam=nao&amp;valvulopalla=nao&amp;marcapasso=nao&amp;arritmias=nao&amp;insuf_venosa=nao&amp;diabetes=nao&amp;hipertireoidismo=nao&amp;endocrinopalias=nao&amp;cirrose=nao&amp;hepatite_a=nao&amp;hepatite_b=nao&amp;hepatite_c=nao&amp;elilismo=nao&amp;hiv=nao&amp;infeccoes_oportunistas=nao&amp;insuf_renal=nao&amp;hemodialise_peritoneal=nao&amp;disturbios_hemorragicos=nao&amp;avc_previo=nao&amp;doencas_psiquiatrica=nao&amp;doencas_neuromuscular=nao&amp;doencas_reumatica=nao&amp;alteracao_neurologica=nao&amp;hemotransfusao_previa=nao&amp;txtarea_obs_gerais=&amp;txt_med_em_uso=&amp;txt_alergias=&amp;txt_cir_previas=&amp;abertura_boca=nao&amp;dentes_falhos=nao&amp;protese=nao&amp;macroglossia=nao&amp;distancia_esterno_mento=&amp;pescoco_curto_longo=&amp;pescoco_mobilidade_cervical=&amp;massa_cervical=nao&amp;desvio_traqueia=nao&amp;distancia_mento_hiloide=&amp;circunferencia_cervical=&amp;chk_atencao_dificuldade_intubacao=sim&amp;hb=&amp;ht=&amp;hm=&amp;plaquetas=&amp;glicose=&amp;u=&amp;cr=&amp;na%2B=&amp;k%2B=&amp;txt_duracao_procedimento=&amp;txt_duracao_procedimento=&amp;cardioscopio=nao&amp;ox_digital=nao&amp;pni=nao&amp;painv=nao&amp;capnografo=nao&amp;an_gases=nao&amp;outros_monitorizacao=&amp;tec_geral=nao&amp;plexo=nao&amp;bloqueio_neuroeixo=nao&amp;combinada=nao&amp;sedacao=nao&amp;sub_mascara=nao&amp;canula_naso=nao&amp;canula_orofaringea=nao&amp;mascara_laringea=nao&amp;nr_mascara_laringea=&amp;intubacao_oro_traqueal=nao&amp;diametro_tubo=&amp;tipo_naso=nao&amp;tipo_aramado=nao&amp;dupla_luz=nao&amp;balao=nao&amp;laringoscopia=nao&amp;broncofibroscopia=nao&amp;estilete_luminoso=nao&amp;videolaringoscopia=nao&amp;cirurgia=&amp;anestesia=&amp;cirurgiap=&amp;_formname=default</div></td></tr><tr><td style="font-weight:bold;vertical-align:top;">HTTP_USER_AGENT</td><td style="vertical-align:top;">:</td><td><div>Mozilla/5.0 (Windows NT 6.3; WOW64) AppleWebKit/537.36 (KHTML, like Gecko) Chrome/39.0.2171.95 Safari/537.36</div></td></tr><tr><td style="font-weight:bold;vertical-align:top;">PATH_INFO</td><td style="vertical-align:top;">:</td><td><div>/anestesia/pagina_incluir</div></td></tr><tr><td style="font-weight:bold;vertical-align:top;">QUERY_STRING</td><td style="vertical-align:top;">:</td><td><div>nr_registro=123&amp;nome=Nail+Mohamed+Saber+Abdo+Bekhit&amp;data=&amp;ficha_nr=&amp;enfermaria=&amp;leito=&amp;idade=&amp;asa=&amp;clinica=&amp;so=&amp;dados_cadastrais_e=nao&amp;dados_cadastrais_sexo=M&amp;altura=&amp;peso=&amp;temperatura=&amp;pulso=&amp;respiracao=&amp;pa=&amp;diagnostico=&amp;cirurgia=&amp;tabagismo=nao&amp;asma=nao&amp;tosse=nao&amp;dpoc=nao&amp;bk_insuficiencia=nao&amp;derrame_pleural=nao&amp;circunferencia_toraxica=nao&amp;has=nao&amp;icc=nao&amp;anglina=nao&amp;iam=nao&amp;valvulopalla=nao&amp;marcapasso=nao&amp;arritmias=nao&amp;insuf_venosa=nao&amp;diabetes=nao&amp;hipertireoidismo=nao&amp;endocrinopalias=nao&amp;cirrose=nao&amp;hepatite_a=nao&amp;hepatite_b=nao&amp;hepatite_c=nao&amp;elilismo=nao&amp;hiv=nao&amp;infeccoes_oportunistas=nao&amp;insuf_renal=nao&amp;hemodialise_peritoneal=nao&amp;disturbios_hemorragicos=nao&amp;avc_previo=nao&amp;doencas_psiquiatrica=nao&amp;doencas_neuromuscular=nao&amp;doencas_reumatica=nao&amp;alteracao_neurologica=nao&amp;hemotransfusao_previa=nao&amp;txtarea_obs_gerais=&amp;txt_med_em_uso=&amp;txt_alergias=&amp;txt_cir_previas=&amp;abertura_boca=nao&amp;dentes_falhos=nao&amp;protese=nao&amp;macroglossia=nao&amp;distancia_esterno_mento=&amp;pescoco_curto_longo=&amp;pescoco_mobilidade_cervical=&amp;massa_cervical=nao&amp;desvio_traqueia=nao&amp;distancia_mento_hiloide=&amp;circunferencia_cervical=&amp;chk_atencao_dificuldade_intubacao=sim&amp;chk_atencao_via_aerea_dificil=sim&amp;hb=&amp;ht=&amp;hm=&amp;plaquetas=&amp;glicose=&amp;u=&amp;cr=&amp;na%2B=&amp;k%2B=&amp;txt_duracao_procedimento=&amp;txt_duracao_procedimento=&amp;cardioscopio=nao&amp;ox_digital=nao&amp;pni=nao&amp;painv=nao&amp;capnografo=nao&amp;an_gases=nao&amp;outros_monitorizacao=&amp;tec_geral=nao&amp;plexo=nao&amp;bloqueio_neuroeixo=nao&amp;combinada=nao&amp;sedacao=nao&amp;sub_mascara=nao&amp;canula_naso=nao&amp;canula_orofaringea=nao&amp;mascara_laringea=nao&amp;nr_mascara_laringea=&amp;intubacao_oro_traqueal=nao&amp;diametro_tubo=&amp;tipo_naso=nao&amp;tipo_aramado=nao&amp;dupla_luz=nao&amp;balao=nao&amp;laringoscopia=nao&amp;broncofibroscopia=nao&amp;estilete_luminoso=nao&amp;videolaringoscopia=nao&amp;cirurgia=&amp;anestesia=&amp;cirurgiap=&amp;_formname=default</div></td></tr><tr><td style="font-weight:bold;vertical-align:top;">REMOTE_ADDR</td><td style="vertical-align:top;">:</td><td><div>127.0.0.1</div></td></tr><tr><td style="font-weight:bold;vertical-align:top;">REMOTE_PORT</td><td style="vertical-align:top;">:</td><td><div>57849</div></td></tr><tr><td style="font-weight:bold;vertical-align:top;">REQUEST_METHOD</td><td style="vertical-align:top;">:</td><td><div>GET</div></td></tr><tr><td style="font-weight:bold;vertical-align:top;">SCRIPT_NAME</td><td style="vertical-align:top;">:</td><td><div></div></td></tr><tr><td style="font-weight:bold;vertical-align:top;">SERVER_NAME</td><td style="vertical-align:top;">:</td><td><div>MOHAMED-DTIC</div></td></tr><tr><td style="font-weight:bold;vertical-align:top;">SERVER_PORT</td><td style="vertical-align:top;">:</td><td><div>8000</div></td></tr><tr><td style="font-weight:bold;vertical-align:top;">SERVER_PROTOCOL</td><td style="vertical-align:top;">:</td><td><div>HTTP/1.1</div></td></tr><tr><td style="font-weight:bold;vertical-align:top;">SERVER_SOFTWARE</td><td style="vertical-align:top;">:</td><td><div>Rocket 1.2.6</div></td></tr><tr><td style="font-weight:bold;vertical-align:top;">app_folders</td><td style="vertical-align:top;">:</td><td><div>set([&#x27;D:\\\\Desenvolvimento\\\\web2py\\\\applications\\\\admin\\\\&#x27;, &#x27;D:\\\\Desenvolvimento\\\\web2py\\\\applications\\\\anestesia\\\\&#x27;, &#x27;D:\\\\Desenvolvimento\\\\web2py\\\\applications\\\\welcome\\\\&#x27;])</div></td></tr><tr><td style="font-weight:bold;vertical-align:top;">applications_parent</td><td style="vertical-align:top;">:</td><td><div>D:\\Desenvolvimento\\web2py</div></td></tr><tr><td style="font-weight:bold;vertical-align:top;">cmd_args</td><td style="vertical-align:top;">:</td><td><div><table></table></div></td></tr><tr><td style="font-weight:bold;vertical-align:top;">cmd_options</td><td style="vertical-align:top;">:</td><td><div>&lt;Values at 0x2e9a7b0: {&#x27;verbose&#x27;: False, &#x27;ip&#x27;: &#x27;127.0.0.1&#x27;, &#x27;debuglevel&#x27;: 30, &#x27;with_scheduler&#x27;: False, &#x27;ips&#x27;: [&#x27;192.168.71.1&#x27;, &#x27;fe80::4023:9900:3196:7ccb%5&#x27;, &#x27;10.129.18.33&#x27;, &#x27;192.168.16.1&#x27;, &#x27;fe80::6dc3:bcf7:daee:374c%7&#x27;, &#x27;fe80::4932:49bd:49c6:6ebe%3&#x27;], &#x27;shutdown_timeout&#x27;: 5, &#x27;taskbar&#x27;: False, &#x27;with_coverage&#x27;: False, &#x27;scheduler_groups&#x27;: None, &#x27;port&#x27;: 8000, &#x27;maxthreads&#x27;: None, &#x27;softcron&#x27;: False, &#x27;server_name&#x27;: &#x27;MOHAMED-DTIC&#x27;, &#x27;bpython&#x27;: False, &#x27;nogui&#x27;: False, &#x27;pid_filename&#x27;: &#x27;httpserver.pid&#x27;, &#x27;extcron&#x27;: False, &#x27;runcron&#x27;: False, &#x27;run_system_tests&#x27;: False, &#x27;test&#x27;: None, &#x27;folder&#x27;: &#x27;D:\\\\Desenvolvimento\\\\web2py&#x27;, &#x27;config&#x27;: &#x27;&#x27;, &#x27;minthreads&#x27;: None, &#x27;shell&#x27;: None, &#x27;run&#x27;: &#x27;&#x27;, &#x27;log_filename&#x27;: &#x27;httpserver.log&#x27;, &#x27;profiler_dir&#x27;: None, &#x27;args&#x27;: [&#x27;&#x27;], &#x27;socket_timeout&#x27;: 5, &#x27;ssl_ca_certificate&#x27;: None, &#x27;scheduler&#x27;: None, &#x27;interfaces&#x27;: None, &#x27;ssl_private_key&#x27;: &#x27;&#x27;, &#x27;gae&#x27;: None, &#x27;password&#x27;: &#x27;&lt;ask&gt;&#x27;, &#x27;request_queue_size&#x27;: 5, &#x27;ssl_certificate&#x27;: &#x27;&#x27;, &#x27;cronjob&#x27;: False, &#x27;numthreads&#x27;: None, &#x27;quiet&#x27;: False, &#x27;import_models&#x27;: False, &#x27;timeout&#x27;: 10, &#x27;plain&#x27;: False, &#x27;nobanner&#x27;: False}&gt;</div></td></tr><tr><td style="font-weight:bold;vertical-align:top;">db_sessions</td><td style="vertical-align:top;">:</td><td><div>set([])</div></td></tr><tr><td style="font-weight:bold;vertical-align:top;">debugging</td><td style="vertical-align:top;">:</td><td><div>False</div></td></tr><tr><td style="font-weight:bold;vertical-align:top;">gluon_parent</td><td style="vertical-align:top;">:</td><td><div>D:\\Desenvolvimento\\web2py</div></td></tr><tr><td style="font-weight:bold;vertical-align:top;">http_accept</td><td style="vertical-align:top;">:</td><td><div>text/html,application/xhtml+xml,application/xml;q=0.9,image/webp,*/*;q=0.8</div></td></tr><tr><td style="font-weight:bold;vertical-align:top;">http_accept_encoding</td><td style="vertical-align:top;">:</td><td><div>gzip, deflate, sdch</div></td></tr><tr><td style="font-weight:bold;vertical-align:top;">http_accept_language</td><td style="vertical-align:top;">:</td><td><div>pt-BR,pt;q=0.8,en-US;q=0.6,en;q=0.4</div></td></tr><tr><td style="font-weight:bold;vertical-align:top;">http_cache_control</td><td style="vertical-align:top;">:</td><td><div>max-age=0</div></td></tr><tr><td style="font-weight:bold;vertical-align:top;">http_connection</td><td style="vertical-align:top;">:</td><td><div>keep-alive</div></td></tr><tr><td style="font-weight:bold;vertical-align:top;">http_cookie</td><td style="vertical-align:top;">:</td><td><div>session_data_examples=&quot;a632629af9fb55f9fa76a3571908672d:sN1Elcivdjn9AEoZt6p9CH1OYrd76hTOUSbiLoxyR_yP3VUKl1SZjORiT_6q2TsxL5KRFbKY7XlUqLQ8qUQ9fdKSc6SQwqz_hs_xRWB1svIa4GO-qZqNh0xkugb0opWHtCh3BhX5xMfeMOBP2L6lUMmh1yUcuvaOH6visCdSEsDn4ByzGUN5ylEsNFejbxELSaAOwlYRb4roFr9TXARwSQ0S6u7zw0eItm2g8Z9bm7H55aH4W870LM4wPH3cOGqzJmQwzbOivkXCtr0z5-WQ_HDnS1WI3ZTDruG4FQa_MF9avDDeu6JZ8vLf9CeyaUOT&quot;; session_id_examples=True; session_id_myappzero=127.0.0.1-41ad397c-50c5-4858-9e39-6c5ae8bdc5a1; session_id_voto=127.0.0.1-8786c067-43b4-459a-8441-749730cd2042; session_id_myapp=127.0.0.1-dd8a077d-66b1-4b2d-808d-5213f9618b8a; session_id_formulario=127.0.0.1-ad3203e2-ca0b-480a-bc23-84d358ff6197; session_id_controle=127.0.0.1-8d5cd6e4-1136-46a7-8777-e2dc8b975cc3; session_id_welcome=127.0.0.1-681ee77d-187b-4fb2-9d07-b68d64a9a1e4; session_id_admin=127.0.0.1-8821195d-d852-402b-9210-e24638d99d35; session_id_anestesia=127.0.0.1-f3e79e0a-00f4-4121-a50b-cf8a4b1af40b</div></td></tr><tr><td style="font-weight:bold;vertical-align:top;">http_host</td><td style="vertical-align:top;">:</td><td><div>127.0.0.1:8000</div></td></tr><tr><td style="font-weight:bold;vertical-align:top;">http_referer</td><td style="vertical-align:top;">:</td><td><div>http://127.0.0.1:8000/anestesia/pagina_incluir?nr_registro=123&amp;nome=Nail+Mohamed+Saber+Abdo+Bekhit&amp;data=&amp;ficha_nr=&amp;enfermaria=&amp;leito=&amp;idade=&amp;asa=&amp;clinica=&amp;so=&amp;dados_cadastrais_e=nao&amp;dados_cadastrais_sexo=M&amp;altura=&amp;peso=&amp;temperatura=&amp;pulso=&amp;respiracao=&amp;pa=&amp;diagnostico=&amp;cirurgia=&amp;tabagismo=nao&amp;asma=nao&amp;tosse=nao&amp;dpoc=nao&amp;bk_insuficiencia=nao&amp;derrame_pleural=nao&amp;circunferencia_toraxica=nao&amp;has=nao&amp;icc=nao&amp;anglina=nao&amp;iam=nao&amp;valvulopalla=nao&amp;marcapasso=nao&amp;arritmias=nao&amp;insuf_venosa=nao&amp;diabetes=nao&amp;hipertireoidismo=nao&amp;endocrinopalias=nao&amp;cirrose=nao&amp;hepatite_a=nao&amp;hepatite_b=nao&amp;hepatite_c=nao&amp;elilismo=nao&amp;hiv=nao&amp;infeccoes_oportunistas=nao&amp;insuf_renal=nao&amp;hemodialise_peritoneal=nao&amp;disturbios_hemorragicos=nao&amp;avc_previo=nao&amp;doencas_psiquiatrica=nao&amp;doencas_neuromuscular=nao&amp;doencas_reumatica=nao&amp;alteracao_neurologica=nao&amp;hemotransfusao_previa=nao&amp;txtarea_obs_gerais=&amp;txt_med_em_uso=&amp;txt_alergias=&amp;txt_cir_previas=&amp;abertura_boca=nao&amp;dentes_falhos=nao&amp;protese=nao&amp;macroglossia=nao&amp;distancia_esterno_mento=&amp;pescoco_curto_longo=&amp;pescoco_mobilidade_cervical=&amp;massa_cervical=nao&amp;desvio_traqueia=nao&amp;distancia_mento_hiloide=&amp;circunferencia_cervical=&amp;chk_atencao_dificuldade_intubacao=sim&amp;hb=&amp;ht=&amp;hm=&amp;plaquetas=&amp;glicose=&amp;u=&amp;cr=&amp;na%2B=&amp;k%2B=&amp;txt_duracao_procedimento=&amp;txt_duracao_procedimento=&amp;cardioscopio=nao&amp;ox_digital=nao&amp;pni=nao&amp;painv=nao&amp;capnografo=nao&amp;an_gases=nao&amp;outros_monitorizacao=&amp;tec_geral=nao&amp;plexo=nao&amp;bloqueio_neuroeixo=nao&amp;combinada=nao&amp;sedacao=nao&amp;sub_mascara=nao&amp;canula_naso=nao&amp;canula_orofaringea=nao&amp;mascara_laringea=nao&amp;nr_mascara_laringea=&amp;intubacao_oro_traqueal=nao&amp;diametro_tubo=&amp;tipo_naso=nao&amp;tipo_aramado=nao&amp;dupla_luz=nao&amp;balao=nao&amp;laringoscopia=nao&amp;broncofibroscopia=nao&amp;estilete_luminoso=nao&amp;videolaringoscopia=nao&amp;cirurgia=&amp;anestesia=&amp;cirurgiap=&amp;_formname=default</div></td></tr><tr><td style="font-weight:bold;vertical-align:top;">http_user_agent</td><td style="vertical-align:top;">:</td><td><div>Mozilla/5.0 (Windows NT 6.3; WOW64) AppleWebKit/537.36 (KHTML, like Gecko) Chrome/39.0.2171.95 Safari/537.36</div></td></tr><tr><td style="font-weight:bold;vertical-align:top;">is_jython</td><td style="vertical-align:top;">:</td><td><div>False</div></td></tr><tr><td style="font-weight:bold;vertical-align:top;">is_pypy</td><td style="vertical-align:top;">:</td><td><div>False</div></td></tr><tr><td style="font-weight:bold;vertical-align:top;">is_source</td><td style="vertical-align:top;">:</td><td><div>True</div></td></tr><tr><td style="font-weight:bold;vertical-align:top;">local_hosts</td><td style="vertical-align:top;">:</td><td><div><table><tr><td><div>192.168.71.1</div></td></tr><tr><td><div>fe80::4023:9900:3196:7ccb%5</div></td></tr><tr><td><div>fe80::6dc3:bcf7:daee:374c%7</div></td></tr><tr><td><div>::ffff:127.0.0.1</div></td></tr><tr><td><div>MOHAMED-DTIC</div></td></tr><tr><td><div>10.129.18.33</div></td></tr><tr><td><div>192.168.16.1</div></td></tr><tr><td><div>::1</div></td></tr><tr><td><div>MOHAMED-DTIC.unirio.br</div></td></tr><tr><td><div>127.0.0.1</div></td></tr><tr><td><div>fe80::4932:49bd:49c6:6ebe%3</div></td></tr></table></div></td></tr><tr><td style="font-weight:bold;vertical-align:top;">path_info</td><td style="vertical-align:top;">:</td><td><div>/anestesia/pagina_incluir</div></td></tr><tr><td style="font-weight:bold;vertical-align:top;">query_string</td><td style="vertical-align:top;">:</td><td><div>nr_registro=123&amp;nome=Nail+Mohamed+Saber+Abdo+Bekhit&amp;data=&amp;ficha_nr=&amp;enfermaria=&amp;leito=&amp;idade=&amp;asa=&amp;clinica=&amp;so=&amp;dados_cadastrais_e=nao&amp;dados_cadastrais_sexo=M&amp;altura=&amp;peso=&amp;temperatura=&amp;pulso=&amp;respiracao=&amp;pa=&amp;diagnostico=&amp;cirurgia=&amp;tabagismo=nao&amp;asma=nao&amp;tosse=nao&amp;dpoc=nao&amp;bk_insuficiencia=nao&amp;derrame_pleural=nao&amp;circunferencia_toraxica=nao&amp;has=nao&amp;icc=nao&amp;anglina=nao&amp;iam=nao&amp;valvulopalla=nao&amp;marcapasso=nao&amp;arritmias=nao&amp;insuf_venosa=nao&amp;diabetes=nao&amp;hipertireoidismo=nao&amp;endocrinopalias=nao&amp;cirrose=nao&amp;hepatite_a=nao&amp;hepatite_b=nao&amp;hepatite_c=nao&amp;elilismo=nao&amp;hiv=nao&amp;infeccoes_oportunistas=nao&amp;insuf_renal=nao&amp;hemodialise_peritoneal=nao&amp;disturbios_hemorragicos=nao&amp;avc_previo=nao&amp;doencas_psiquiatrica=nao&amp;doencas_neuromuscular=nao&amp;doencas_reumatica=nao&amp;alteracao_neurologica=nao&amp;hemotransfusao_previa=nao&amp;txtarea_obs_gerais=&amp;txt_med_em_uso=&amp;txt_alergias=&amp;txt_cir_previas=&amp;abertura_boca=nao&amp;dentes_falhos=nao&amp;protese=nao&amp;macroglossia=nao&amp;distancia_esterno_mento=&amp;pescoco_curto_longo=&amp;pescoco_mobilidade_cervical=&amp;massa_cervical=nao&amp;desvio_traqueia=nao&amp;distancia_mento_hiloide=&amp;circunferencia_cervical=&amp;chk_atencao_dificuldade_intubacao=sim&amp;chk_atencao_via_aerea_dificil=sim&amp;hb=&amp;ht=&amp;hm=&amp;plaquetas=&amp;glicose=&amp;u=&amp;cr=&amp;na%2B=&amp;k%2B=&amp;txt_duracao_procedimento=&amp;txt_duracao_procedimento=&amp;cardioscopio=nao&amp;ox_digital=nao&amp;pni=nao&amp;painv=nao&amp;capnografo=nao&amp;an_gases=nao&amp;outros_monitorizacao=&amp;tec_geral=nao&amp;plexo=nao&amp;bloqueio_neuroeixo=nao&amp;combinada=nao&amp;sedacao=nao&amp;sub_mascara=nao&amp;canula_naso=nao&amp;canula_orofaringea=nao&amp;mascara_laringea=nao&amp;nr_mascara_laringea=&amp;intubacao_oro_traqueal=nao&amp;diametro_tubo=&amp;tipo_naso=nao&amp;tipo_aramado=nao&amp;dupla_luz=nao&amp;balao=nao&amp;laringoscopia=nao&amp;broncofibroscopia=nao&amp;estilete_luminoso=nao&amp;videolaringoscopia=nao&amp;cirurgia=&amp;anestesia=&amp;cirurgiap=&amp;_formname=default</div></td></tr><tr><td style="font-weight:bold;vertical-align:top;">remote_addr</td><td style="vertical-align:top;">:</td><td><div>127.0.0.1</div></td></tr><tr><td style="font-weight:bold;vertical-align:top;">remote_port</td><td style="vertical-align:top;">:</td><td><div>57849</div></td></tr><tr><td style="font-weight:bold;vertical-align:top;">request_method</td><td style="vertical-align:top;">:</td><td><div>GET</div></td></tr><tr><td style="font-weight:bold;vertical-align:top;">request_uri</td><td style="vertical-align:top;">:</td><td><div>/anestesia/pagina_incluir?nr_registro=123&amp;nome=Nail+Mohamed+Saber+Abdo+Bekhit&amp;data=&amp;ficha_nr=&amp;enfermaria=&amp;leito=&amp;idade=&amp;asa=&amp;clinica=&amp;so=&amp;dados_cadastrais_e=nao&amp;dados_cadastrais_sexo=M&amp;altura=&amp;peso=&amp;temperatura=&amp;pulso=&amp;respiracao=&amp;pa=&amp;diagnostico=&amp;cirurgia=&amp;tabagismo=nao&amp;asma=nao&amp;tosse=nao&amp;dpoc=nao&amp;bk_insuficiencia=nao&amp;derrame_pleural=nao&amp;circunferencia_toraxica=nao&amp;has=nao&amp;icc=nao&amp;anglina=nao&amp;iam=nao&amp;valvulopalla=nao&amp;marcapasso=nao&amp;arritmias=nao&amp;insuf_venosa=nao&amp;diabetes=nao&amp;hipertireoidismo=nao&amp;endocrinopalias=nao&amp;cirrose=nao&amp;hepatite_a=nao&amp;hepatite_b=nao&amp;hepatite_c=nao&amp;elilismo=nao&amp;hiv=nao&amp;infeccoes_oportunistas=nao&amp;insuf_renal=nao&amp;hemodialise_peritoneal=nao&amp;disturbios_hemorragicos=nao&amp;avc_previo=nao&amp;doencas_psiquiatrica=nao&amp;doencas_neuromuscular=nao&amp;doencas_reumatica=nao&amp;alteracao_neurologica=nao&amp;hemotransfusao_previa=nao&amp;txtarea_obs_gerais=&amp;txt_med_em_uso=&amp;txt_alergias=&amp;txt_cir_previas=&amp;abertura_boca=nao&amp;dentes_falhos=nao&amp;protese=nao&amp;macroglossia=nao&amp;distancia_esterno_mento=&amp;pescoco_curto_longo=&amp;pescoco_mobilidade_cervical=&amp;massa_cervical=nao&amp;desvio_traqueia=nao&amp;distancia_mento_hiloide=&amp;circunferencia_cervical=&amp;chk_atencao_dificuldade_intubacao=sim&amp;chk_atencao_via_aerea_dificil=sim&amp;hb=&amp;ht=&amp;hm=&amp;plaquetas=&amp;glicose=&amp;u=&amp;cr=&amp;na%2B=&amp;k%2B=&amp;txt_duracao_procedimento=&amp;txt_duracao_procedimento=&amp;cardioscopio=nao&amp;ox_digital=nao&amp;pni=nao&amp;painv=nao&amp;capnografo=nao&amp;an_gases=nao&amp;outros_monitorizacao=&amp;tec_geral=nao&amp;plexo=nao&amp;bloqueio_neuroeixo=nao&amp;combinada=nao&amp;sedacao=nao&amp;sub_mascara=nao&amp;canula_naso=nao&amp;canula_orofaringea=nao&amp;mascara_laringea=nao&amp;nr_mascara_laringea=&amp;intubacao_oro_traqueal=nao&amp;diametro_tubo=&amp;tipo_naso=nao&amp;tipo_aramado=nao&amp;dupla_luz=nao&amp;balao=nao&amp;laringoscopia=nao&amp;broncofibroscopia=nao&amp;estilete_luminoso=nao&amp;videolaringoscopia=nao&amp;cirurgia=&amp;anestesia=&amp;cirurgiap=&amp;_formname=default</div></td></tr><tr><td style="font-weight:bold;vertical-align:top;">script_name</td><td style="vertical-align:top;">:</td><td><div></div></td></tr><tr><td style="font-weight:bold;vertical-align:top;">server_name</td><td style="vertical-align:top;">:</td><td><div>MOHAMED-DTIC</div></td></tr><tr><td style="font-weight:bold;vertical-align:top;">server_port</td><td style="vertical-align:top;">:</td><td><div>8000</div></td></tr><tr><td style="font-weight:bold;vertical-align:top;">server_protocol</td><td style="vertical-align:top;">:</td><td><div>HTTP/1.1</div></td></tr><tr><td style="font-weight:bold;vertical-align:top;">server_software</td><td style="vertical-align:top;">:</td><td><div>Rocket 1.2.6</div></td></tr><tr><td style="font-weight:bold;vertical-align:top;">web2py_path</td><td style="vertical-align:top;">:</td><td><div>D:\\Desenvolvimento\\web2py</div></td></tr><tr><td style="font-weight:bold;vertical-align:top;">web2py_version</td><td style="vertical-align:top;">:</td><td><div>2.9.11-stable+timestamp.2014.09.15.23.35.11</div></td></tr><tr><td style="font-weight:bold;vertical-align:top;">wsgi.errors</td><td style="vertical-align:top;">:</td><td><div>&lt;open file &#x27;&lt;stderr&gt;&#x27;, mode &#x27;w&#x27; at 0x004250D0&gt;</div></td></tr><tr><td style="font-weight:bold;vertical-align:top;">wsgi.file_wrapper</td><td style="vertical-align:top;">:</td><td><div>&lt;class wsgiref.util.FileWrapper at 0x02E49378&gt;</div></td></tr><tr><td style="font-weight:bold;vertical-align:top;">wsgi.input</td><td style="vertical-align:top;">:</td><td><div>&lt;socket._fileobject object at 0x032680B0&gt;</div></td></tr><tr><td style="font-weight:bold;vertical-align:top;">wsgi.multiprocess</td><td style="vertical-align:top;">:</td><td><div>False</div></td></tr><tr><td style="font-weight:bold;vertical-align:top;">wsgi.multithread</td><td style="vertical-align:top;">:</td><td><div>True</div></td></tr><tr><td style="font-weight:bold;vertical-align:top;">wsgi.run_once</td><td style="vertical-align:top;">:</td><td><div>False</div></td></tr><tr><td style="font-weight:bold;vertical-align:top;">wsgi.url_scheme</td><td style="vertical-align:top;">:</td><td><div>http</div></td></tr><tr><td style="font-weight:bold;vertical-align:top;">wsgi.version</td><td style="vertical-align:top;">:</td><td><div><table><tr><td><div>1</div></td></tr><tr><td><div>0</div></td></tr></table></div></td></tr><tr><td style="font-weight:bold;vertical-align:top;">wsgi_errors</td><td style="vertical-align:top;">:</td><td><div>&lt;open file &#x27;&lt;stderr&gt;&#x27;, mode &#x27;w&#x27; at 0x004250D0&gt;</div></td></tr><tr><td style="font-weight:bold;vertical-align:top;">wsgi_file_wrapper</td><td style="vertical-align:top;">:</td><td><div>&lt;class wsgiref.util.FileWrapper at 0x02E49378&gt;</div></td></tr><tr><td style="font-weight:bold;vertical-align:top;">wsgi_input</td><td style="vertical-align:top;">:</td><td><div>&lt;socket._fileobject object at 0x032680B0&gt;</div></td></tr><tr><td style="font-weight:bold;vertical-align:top;">wsgi_multiprocess</td><td style="vertical-align:top;">:</td><td><div>False</div></td></tr><tr><td style="font-weight:bold;vertical-align:top;">wsgi_multithread</td><td style="vertical-align:top;">:</td><td><div>True</div></td></tr><tr><td style="font-weight:bold;vertical-align:top;">wsgi_run_once</td><td style="vertical-align:top;">:</td><td><div>False</div></td></tr><tr><td style="font-weight:bold;vertical-align:top;">wsgi_url_scheme</td><td style="vertical-align:top;">:</td><td><div>http</div></td></tr><tr><td style="font-weight:bold;vertical-align:top;">wsgi_version</td><td style="vertical-align:top;">:</td><td><div><table><tr><td><div>1</div></td></tr><tr><td><div>0</div></td></tr></table></div></td></tr></table></div></td></tr><tr><td style="font-weight:bold;vertical-align:top;">extension</td><td style="vertical-align:top;">:</td><td><div>html</div></td></tr><tr><td style="font-weight:bold;vertical-align:top;">folder</td><td style="vertical-align:top;">:</td><td><div>D:\\Desenvolvimento\\web2py\\applications\\anestesia\\</div></td></tr><tr><td style="font-weight:bold;vertical-align:top;">function</td><td style="vertical-align:top;">:</td><td><div>index</div></td></tr><tr><td style="font-weight:bold;vertical-align:top;">global_settings</td><td style="vertical-align:top;">:</td><td><div><table><tr><td style="font-weight:bold;vertical-align:top;">app_folders</td><td style="vertical-align:top;">:</td><td><div>set([&#x27;D:\\\\Desenvolvimento\\\\web2py\\\\applications\\\\admin\\\\&#x27;, &#x27;D:\\\\Desenvolvimento\\\\web2py\\\\applications\\\\anestesia\\\\&#x27;, &#x27;D:\\\\Desenvolvimento\\\\web2py\\\\applications\\\\welcome\\\\&#x27;])</div></td></tr><tr><td style="font-weight:bold;vertical-align:top;">applications_parent</td><td style="vertical-align:top;">:</td><td><div>D:\\Desenvolvimento\\web2py</div></td></tr><tr><td style="font-weight:bold;vertical-align:top;">cmd_args</td><td style="vertical-align:top;">:</td><td><div><table></table></div></td></tr><tr><td style="font-weight:bold;vertical-align:top;">cmd_options</td><td style="vertical-align:top;">:</td><td><div>&lt;Values at 0x2e9a7b0: {&#x27;verbose&#x27;: False, &#x27;ip&#x27;: &#x27;127.0.0.1&#x27;, &#x27;debuglevel&#x27;: 30, &#x27;with_scheduler&#x27;: False, &#x27;ips&#x27;: [&#x27;192.168.71.1&#x27;, &#x27;fe80::4023:9900:3196:7ccb%5&#x27;, &#x27;10.129.18.33&#x27;, &#x27;192.168.16.1&#x27;, &#x27;fe80::6dc3:bcf7:daee:374c%7&#x27;, &#x27;fe80::4932:49bd:49c6:6ebe%3&#x27;], &#x27;shutdown_timeout&#x27;: 5, &#x27;taskbar&#x27;: False, &#x27;with_coverage&#x27;: False, &#x27;scheduler_groups&#x27;: None, &#x27;port&#x27;: 8000, &#x27;maxthreads&#x27;: None, &#x27;softcron&#x27;: False, &#x27;server_name&#x27;: &#x27;MOHAMED-DTIC&#x27;, &#x27;bpython&#x27;: False, &#x27;nogui&#x27;: False, &#x27;pid_filename&#x27;: &#x27;httpserver.pid&#x27;, &#x27;extcron&#x27;: False, &#x27;runcron&#x27;: False, &#x27;run_system_tests&#x27;: False, &#x27;test&#x27;: None, &#x27;folder&#x27;: &#x27;D:\\\\Desenvolvimento\\\\web2py&#x27;, &#x27;config&#x27;: &#x27;&#x27;, &#x27;minthreads&#x27;: None, &#x27;shell&#x27;: None, &#x27;run&#x27;: &#x27;&#x27;, &#x27;log_filename&#x27;: &#x27;httpserver.log&#x27;, &#x27;profiler_dir&#x27;: None, &#x27;args&#x27;: [&#x27;&#x27;], &#x27;socket_timeout&#x27;: 5, &#x27;ssl_ca_certificate&#x27;: None, &#x27;scheduler&#x27;: None, &#x27;interfaces&#x27;: None, &#x27;ssl_private_key&#x27;: &#x27;&#x27;, &#x27;gae&#x27;: None, &#x27;password&#x27;: &#x27;&lt;ask&gt;&#x27;, &#x27;request_queue_size&#x27;: 5, &#x27;ssl_certificate&#x27;: &#x27;&#x27;, &#x27;cronjob&#x27;: False, &#x27;numthreads&#x27;: None, &#x27;quiet&#x27;: False, &#x27;import_models&#x27;: False, &#x27;timeout&#x27;: 10, &#x27;plain&#x27;: False, &#x27;nobanner&#x27;: False}&gt;</div></td></tr><tr><td style="font-weight:bold;vertical-align:top;">db_sessions</td><td style="vertical-align:top;">:</td><td><div>set([])</div></td></tr><tr><td style="font-weight:bold;vertical-align:top;">debugging</td><td style="vertical-align:top;">:</td><td><div>False</div></td></tr><tr><td style="font-weight:bold;vertical-align:top;">gluon_parent</td><td style="vertical-align:top;">:</td><td><div>D:\\Desenvolvimento\\web2py</div></td></tr><tr><td style="font-weight:bold;vertical-align:top;">is_jython</td><td style="vertical-align:top;">:</td><td><div>False</div></td></tr><tr><td style="font-weight:bold;vertical-align:top;">is_pypy</td><td style="vertical-align:top;">:</td><td><div>False</div></td></tr><tr><td style="font-weight:bold;vertical-align:top;">is_source</td><td style="vertical-align:top;">:</td><td><div>True</div></td></tr><tr><td style="font-weight:bold;vertical-align:top;">local_hosts</td><td style="vertical-align:top;">:</td><td><div><table><tr><td><div>192.168.71.1</div></td></tr><tr><td><div>fe80::4023:9900:3196:7ccb%5</div></td></tr><tr><td><div>fe80::6dc3:bcf7:daee:374c%7</div></td></tr><tr><td><div>::ffff:127.0.0.1</div></td></tr><tr><td><div>MOHAMED-DTIC</div></td></tr><tr><td><div>10.129.18.33</div></td></tr><tr><td><div>192.168.16.1</div></td></tr><tr><td><div>::1</div></td></tr><tr><td><div>MOHAMED-DTIC.unirio.br</div></td></tr><tr><td><div>127.0.0.1</div></td></tr><tr><td><div>fe80::4932:49bd:49c6:6ebe%3</div></td></tr></table></div></td></tr><tr><td style="font-weight:bold;vertical-align:top;">web2py_version</td><td style="vertical-align:top;">:</td><td><div>2.9.11-stable+timestamp.2014.09.15.23.35.11</div></td></tr></table></div></td></tr><tr><td style="font-weight:bold;vertical-align:top;">is_https</td><td style="vertical-align:top;">:</td><td><div>False</div></td></tr><tr><td style="font-weight:bold;vertical-align:top;">is_local</td><td style="vertical-align:top;">:</td><td><div>True</div></td></tr><tr><td style="font-weight:bold;vertical-align:top;">is_restful</td><td style="vertical-align:top;">:</td><td><div>False</div></td></tr><tr><td style="font-weight:bold;vertical-align:top;">is_sheduler</td><td style="vertical-align:top;">:</td><td><div>None</div></td></tr><tr><td style="font-weight:bold;vertical-align:top;">is_shell</td><td style="vertical-align:top;">:</td><td><div>None</div></td></tr><tr><td style="font-weight:bold;vertical-align:top;">now</td><td style="vertical-align:top;">:</td><td><div>datetime.datetime(2014, 12, 15, 15, 57, 52, 217000)</div></td></tr><tr><td style="font-weight:bold;vertical-align:top;">raw_args</td><td style="vertical-align:top;">:</td><td><div></div></td></tr><tr><td style="font-weight:bold;vertical-align:top;">raw_extension</td><td style="vertical-align:top;">:</td><td><div>None</div></td></tr><tr><td style="font-weight:bold;vertical-align:top;">url</td><td style="vertical-align:top;">:</td><td><div>/anestesia/pagina_incluir</div></td></tr><tr><td style="font-weight:bold;vertical-align:top;">utcnow</td><td style="vertical-align:top;">:</td><td><div>datetime.datetime(2014, 12, 15, 17, 57, 52, 217000)</div></td></tr><tr><td style="font-weight:bold;vertical-align:top;">uuid</td><td style="vertical-align:top;">:</td><td><div>anestesia/127.0.0.1.2014-12-15.15-57-52.87dd5dcf-0089-48ed-823f-890e9f861624</div></td></tr><tr><td style="font-weight:bold;vertical-align:top;">wsgi</td><td style="vertical-align:top;">:</td><td><div>&lt;gluon.main.LazyWSGI object at 0x081A63B0&gt;</div></td></tr></table></div>'
tRp62
sS'frames'
p63
(lp64
(dp65
S'file'
p66
S'D:\\Desenvolvimento\\web2py\\gluon\\restricted.py'
p67
sS'dump'
p68
(dp69
S'environment'
p70
S"{'A': <class 'gluon.html.A'>, 'ANY_OF': <class 'gluon.validators.ANY_OF'>, 'ASSIGNJS': <function ASSIGNJS>, 'Auth': <class 'gluon.tools.Auth'>, 'B': <class 'gluon.html.B'>, 'BEAUTIFY': <class 'gluon.html.BEAUTIFY'>, 'BODY': <class 'gluon.html.BODY'>, 'BR': <class 'gluon.html.BR'>, 'BUTTON': <class 'gluon.html.BUTTON'>, 'CAT': <class 'gluon.html.CAT'>, ...}"
p71
sS'ccode'
p72
S'<code object <module> at 08BCCDA0, file "D:\\Dese...py\\applications\\anestesia\\models\\db.py", line 12>'
p73
ssS'lnum'
p74
I224
sS'lines'
p75
(dp76
I224
S'        exec ccode in environment'
p77
sI225
S'    except HTTP:'
p78
sI226
S'        raise'
p79
sI227
S'    except RestrictedError:'
p80
sI228
S'        # do not encapsulate (obfuscate) the original RestrictedError'
p81
sI219
S'    try:'
p82
sI220
S'        if isinstance(code, types.CodeType):'
p83
sI221
S'            ccode = code'
p84
sI222
S'        else:'
p85
sI223
S'            ccode = compile2(code, layer)'
p86
ssS'call'
p87
S"(code='# -*- coding: utf-8 -*-\\n\\n#######################...paciente.matricula_hugg.requires = IS_NOT_EMPTY()', environment={'A': <class 'gluon.html.A'>, 'ANY_OF': <class 'gluon.validators.ANY_OF'>, 'ASSIGNJS': <function ASSIGNJS>, 'Auth': <class 'gluon.tools.Auth'>, 'B': <class 'gluon.html.B'>, 'BEAUTIFY': <class 'gluon.html.BEAUTIFY'>, 'BODY': <class 'gluon.html.BODY'>, 'BR': <class 'gluon.html.BR'>, 'BUTTON': <class 'gluon.html.BUTTON'>, 'CAT': <class 'gluon.html.CAT'>, ...}, layer=r'D:\\Desenvolvimento\\web2py\\applications\\anestesia\\models\\db.py')"
p88
sS'func'
p89
S'restricted'
p90
sa(dp91
g66
S'D:\\Desenvolvimento\\web2py\\applications\\anestesia\\models\\db.py'
p92
sg68
(dp93
S'Field'
p94
S"<class 'gluon.dal.Field'>"
p95
ssg74
I207
sg75
(dp96
I202
S"                    Field('broncofibroscopia', 'boolean'),"
p97
sI203
S"                    Field('estilete_luminoso', 'boolean'),"
p98
sI204
S"                    Field('videolaringoscopia', 'boolean'),"
p99
sI205
S"                    Field('cirurgia', 'string'),"
p100
sI206
S"                    Field('anestesia', 'string'),"
p101
sI207
S"                    Field('cirurgiao', 'string'),"
p102
sI208
S'                    )'
p103
sI209
S''
sI210
S"db.paciente.nome.requires = IS_NOT_EMPTY(error_message='O Nome n\xc3\xa3o pode estar sem preenchimento.')"
p104
sI211
S'db.paciente.matricula_hugg.requires = IS_NOT_EMPTY()'
p105
ssg87
S'()'
p106
sg89
S'<module>'
p107
sa(dp108
g66
S'D:\\Desenvolvimento\\web2py\\gluon\\dal.py'
p109
sg68
(dp110
S'fields'
p111
S'(<gluon.dal.Field object>, <gluon.dal.Field object>, <gluon.dal.Field object>, <gluon.dal.Field object>, <gluon.dal.Field object>, <gluon.dal.Field object>, <gluon.dal.Field object>, <gluon.dal.Field object>, <gluon.dal.Field object>, <gluon.dal.Field object>, <gluon.dal.Field object>, <gluon.dal.Field object>, <gluon.dal.Field object>, <gluon.dal.Field object>, <gluon.dal.Field object>, <gluon.dal.Field object>, <gluon.dal.Field object>, <gluon.dal.Field object>, <gluon.dal.Field object>, <gluon.dal.Field object>, ...)'
p112
sS'self'
p113
S'<DAL uri="postgres:******@teste.sistemas.unirio.br:5432/anestesia">'
p114
sS'args'
p115
g21
sS'tablename'
p116
S"'paciente'"
p117
sS'table'
p118
S'undefined'
p119
sS'self.lazy_define_table'
p120
S'<bound method DAL.lazy_define_table of <DAL uri=...******@teste.sistemas.unirio.br:5432/anestesia">>'
p121
ssg74
I8414
sg75
(dp122
I8416
S'            self.tables.append(tablename)'
p123
sI8417
S'        return table'
p124
sI8418
S''
sI8409
S'                    % (tablename, invalid_args))'
p125
sI8410
S'        if self._lazy_tables and not tablename in self._LAZY_TABLES:'
p126
sI8411
S'            self._LAZY_TABLES[tablename] = (tablename, fields, args)'
p127
sI8412
S'            table = None'
p128
sI8413
S'        else:'
p129
sI8414
S'            table = self.lazy_define_table(tablename, *fields, **args)'
p130
sI8415
S'        if not tablename in self.tables:'
p131
ssg87
S'(self=<DAL uri="postgres:******@teste.sistemas.unirio.br:5432/anestesia">, tablename=\'paciente\', *fields=(<gluon.dal.Field object>, <gluon.dal.Field object>, <gluon.dal.Field object>, <gluon.dal.Field object>, <gluon.dal.Field object>, <gluon.dal.Field object>, <gluon.dal.Field object>, <gluon.dal.Field object>, <gluon.dal.Field object>, <gluon.dal.Field object>, <gluon.dal.Field object>, <gluon.dal.Field object>, <gluon.dal.Field object>, <gluon.dal.Field object>, <gluon.dal.Field object>, <gluon.dal.Field object>, <gluon.dal.Field object>, <gluon.dal.Field object>, <gluon.dal.Field object>, <gluon.dal.Field object>, ...), **args={})'
p132
sg89
S'define_table'
p133
sa(dp134
g66
S'D:\\Desenvolvimento\\web2py\\gluon\\dal.py'
p135
sg68
(dp136
S'polymodel'
p137
S'None'
p138
ssg74
I8450
sg75
(dp139
I8448
S'                    table, migrate=migrate,'
p140
sI8449
S'                    fake_migrate=fake_migrate,'
p141
sI8450
S'                    polymodel=polymodel)'
p142
sI8451
S'            finally:'
p143
sI8452
S'                GLOBAL_LOCKER.release()'
p144
sI8453
S'        else:'
p145
sI8454
S'            table._dbt = None'
p146
sI8445
S'            try:'
p147
sI8446
S'                GLOBAL_LOCKER.acquire()'
p148
sI8447
S'                self._lastsql = self._adapter.create_table('
p149
ssg87
S'(self=<DAL uri="postgres:******@teste.sistemas.unirio.br:5432/anestesia">, tablename=\'paciente\', *fields=(<gluon.dal.Field object>, <gluon.dal.Field object>, <gluon.dal.Field object>, <gluon.dal.Field object>, <gluon.dal.Field object>, <gluon.dal.Field object>, <gluon.dal.Field object>, <gluon.dal.Field object>, <gluon.dal.Field object>, <gluon.dal.Field object>, <gluon.dal.Field object>, <gluon.dal.Field object>, <gluon.dal.Field object>, <gluon.dal.Field object>, <gluon.dal.Field object>, <gluon.dal.Field object>, <gluon.dal.Field object>, <gluon.dal.Field object>, <gluon.dal.Field object>, <gluon.dal.Field object>, ...), **args={})'
p150
sg89
S'lazy_define_table'
p151
sa(dp152
g66
S'D:\\Desenvolvimento\\web2py\\gluon\\dal.py'
p153
sg68
(dp154
S'fake_migrate'
p155
S'False'
p156
ssg74
I1134
sg75
(dp157
I1129
S'            self.file_close(tfile)'
p158
sI1130
S'            if sql_fields != sql_fields_old:'
p159
sI1131
S'                self.migrate_table(table,'
p160
sI1132
S'                                   sql_fields, sql_fields_old,'
p161
sI1133
S'                                   sql_fields_aux, None,'
p162
sI1134
S'                                   fake_migrate=fake_migrate'
p163
sI1135
S'                                   )'
p164
sI1136
S'        return query'
p165
sI1137
S''
sI1138
S'    def migrate_table(self,'
p166
ssg87
S'(self=<gluon.dal.PostgreSQLAdapter object>, table=<Table paciente (id,nr_registro,matricula_hugg,n...luminoso,videolaringoscopia,anestesia,cirurgiao)>, migrate=True, fake_migrate=False, polymodel=None)'
p167
sg89
S'create_table'
p168
sa(dp169
g66
S'D:\\Desenvolvimento\\web2py\\gluon\\dal.py'
p170
sg68
(dp171
S'self'
p172
S'<gluon.dal.PostgreSQLAdapter object>'
p173
sS'self.execute'
p174
S'<bound method PostgreSQLAdapter.execute of <gluon.dal.PostgreSQLAdapter object>>'
p175
sS'sub_query'
p176
S"'ALTER TABLE paciente ADD na+ VARCHAR(512);'"
p177
ssg74
I1246
sg75
(dp178
I1248
S'                        # do not allow multiple alter table'
p179
sI1249
S'                        # in one transaction so we must commit'
p180
sI1250
S'                        # partial transactions and'
p181
sI1241
S'                    if fake_migrate:'
p182
sI1242
S'                        if db._adapter.commit_on_alter_table:'
p183
sI1243
S'                            self.save_dbt(table, sql_fields_current)'
p184
sI1244
S"                        self.log('faked!\\n', table)"
p185
sI1245
S'                    else:'
p186
sI1246
S'                        self.execute(sub_query)'
p187
sI1247
S'                        # Caveat: mysql, oracle and firebird'
p188
ssg87
S"(self=<gluon.dal.PostgreSQLAdapter object>, table=<Table paciente (id,nr_registro,matricula_hugg,n...luminoso,videolaringoscopia,anestesia,cirurgiao)>, sql_fields={'abertura_boca': {'length': 512, 'notnull': False, 'sortable': 62, 'sql': 'CHAR(1)', 'type': 'boolean', 'unique': False}, 'alergias': {'length': 512, 'notnull': False, 'sortable': 59, 'sql': 'VARCHAR(512)', 'type': 'string', 'unique': False}, 'alteracao_neurologica': {'length': 512, 'notnull': False, 'sortable': 55, 'sql': 'CHAR(1)', 'type': 'boolean', 'unique': False}, 'altura': {'length': 512, 'notnull': False, 'sortable': 15, 'sql': 'FLOAT8', 'type': 'double', 'unique': False}, 'an_gases': {'length': 512, 'notnull': False, 'sortable': 95, 'sql': 'CHAR(1)', 'type': 'boolean', 'unique': False}, 'anestesia': {'length': 512, 'notnull': False, 'sortable': 116, 'sql': 'VARCHAR(512)', 'type': 'string', 'unique': False}, 'anglina': {'length': 512, 'notnull': False, 'sortable': 32, 'sql': 'CHAR(1)', 'type': 'boolean', 'unique': False}, 'arritmias': {'length': 512, 'notnull': False, 'sortable': 36, 'sql': 'CHAR(1)', 'type': 'boolean', 'unique': False}, 'asa': {'length': 512, 'notnull': False, 'sortable': 10, 'sql': 'VARCHAR(512)', 'type': 'string', 'unique': False}, 'asma': {'length': 512, 'notnull': False, 'sortable': 24, 'sql': 'CHAR(1)', 'type': 'boolean', 'unique': False}, ...}, sql_fields_old={'abertura_boca': {'length': 512, 'notnull': False, 'sortable': 62, 'sql': 'CHAR(1)', 'type': 'boolean', 'unique': False}, 'alergias': {'length': 512, 'notnull': False, 'sortable': 59, 'sql': 'VARCHAR(512)', 'type': 'string', 'unique': False}, 'alteracao_neurologica': {'length': 512, 'notnull': False, 'sortable': 55, 'sql': 'CHAR(1)', 'type': 'boolean', 'unique': False}, 'altura': {'length': 512, 'notnull': False, 'sortable': 15, 'sql': 'FLOAT8', 'type': 'double', 'unique': False}, 'anglina': {'length': 512, 'notnull': False, 'sortable': 32, 'sql': 'CHAR(1)', 'type': 'boolean', 'unique': False}, 'arritmias': {'length': 512, 'notnull': False, 'sortable': 36, 'sql': 'CHAR(1)', 'type': 'boolean', 'unique': False}, 'asa': {'length': 512, 'notnull': False, 'sortable': 10, 'sql': 'VARCHAR(512)', 'type': 'string', 'unique': False}, 'asma': {'length': 512, 'notnull': False, 'sortable': 24, 'sql': 'CHAR(1)', 'type': 'boolean', 'unique': False}, 'avc_previo': {'length': 512, 'notnull': False, 'sortable': 51, 'sql': 'CHAR(1)', 'type': 'boolean', 'unique': False}, 'bk_insuficiencia': {'length': 512, 'notnull': False, 'sortable': 27, 'sql': 'CHAR(1)', 'type': 'boolean', 'unique': False}, ...}, sql_fields_aux={'abertura_boca': {'sql': 'CHAR(1)'}, 'alergias': {'sql': 'VARCHAR(512)'}, 'alteracao_neurologica': {'sql': 'CHAR(1)'}, 'altura': {'sql': 'FLOAT8'}, 'an_gases': {'sql': 'CHAR(1)'}, 'anestesia': {'sql': 'VARCHAR(512)'}, 'anglina': {'sql': 'CHAR(1)'}, 'arritmias': {'sql': 'CHAR(1)'}, 'asa': {'sql': 'VARCHAR(512)'}, 'asma': {'sql': 'CHAR(1)'}, ...}, logfile=None, fake_migrate=False)"
p189
sg89
S'migrate_table'
p190
sa(dp191
g66
S'D:\\Desenvolvimento\\web2py\\gluon\\dal.py'
p192
sg68
(dp193
S'a'
S"('ALTER TABLE paciente ADD na+ VARCHAR(512);',)"
p194
sS'self'
p195
S'<gluon.dal.PostgreSQLAdapter object>'
p196
sS'b'
g21
sS'self.log_execute'
p197
S'<bound method PostgreSQLAdapter.log_execute of <gluon.dal.PostgreSQLAdapter object>>'
p198
ssg74
I1967
sg75
(dp199
I1962
S'        self.db._timings.append((command, time.time()-t0))'
p200
sI1963
S'        del self.db._timings[:-TIMINGSSIZE]'
p201
sI1964
S'        return ret'
p202
sI1965
S''
sI1966
S'    def execute(self, *a, **b):'
p203
sI1967
S'        return self.log_execute(*a, **b)'
p204
sI1968
S''
sI1969
S'    def represent(self, obj, fieldtype):'
p205
sI1970
S'        field_is_type = fieldtype.startswith'
p206
sI1971
S'        if isinstance(obj, CALLABLETYPES):'
p207
ssg87
S"(self=<gluon.dal.PostgreSQLAdapter object>, *a=('ALTER TABLE paciente ADD na+ VARCHAR(512);',), **b={})"
p208
sg89
S'execute'
p209
sa(dp210
g66
S'D:\\Desenvolvimento\\web2py\\gluon\\dal.py'
p211
sg68
(dp212
S'a'
S"('ALTER TABLE paciente ADD na+ VARCHAR(512);',)"
p213
sS'b'
g21
sS'self'
p214
S'<gluon.dal.PostgreSQLAdapter object>'
p215
sS'ret'
p216
g119
sS'self.cursor'
p217
S'<gluon.contrib.pg8000.dbapi.CursorWrapper object>'
p218
sS'command'
p219
S"'ALTER TABLE paciente ADD na+ VARCHAR(512);'"
p220
sS'self.cursor.execute'
p221
S'<bound method CursorWrapper._fn of <gluon.contrib.pg8000.dbapi.CursorWrapper object>>'
p222
ssg74
I1961
sg75
(dp223
I1956
S'            command = self.filter_sql_command(command)'
p224
sI1957
S'        if self.db._debug:'
p225
sI1958
S"            LOGGER.debug('SQL: %s' % command)"
p226
sI1959
S'        self.db._lastsql = command'
p227
sI1960
S'        t0 = time.time()'
p228
sI1961
S'        ret = self.cursor.execute(command, *a[1:], **b)'
p229
sI1962
S'        self.db._timings.append((command, time.time()-t0))'
p230
sI1963
S'        del self.db._timings[:-TIMINGSSIZE]'
p231
sI1964
S'        return ret'
p232
sI1965
S''
ssg87
S"(self=<gluon.dal.PostgreSQLAdapter object>, *a=('ALTER TABLE paciente ADD na+ VARCHAR(512);',), **b={})"
p233
sg89
S'log_execute'
p234
sa(dp235
g66
S'D:\\Desenvolvimento\\web2py\\gluon\\contrib\\pg8000\\dbapi.py'
p236
sg68
(dp237
S'self'
p238
S'<gluon.contrib.pg8000.dbapi.CursorWrapper object>'
p239
sS'args'
p240
S"('ALTER TABLE paciente ADD na+ VARCHAR(512);',)"
p241
sS'fn'
p242
S'<function execute>'
p243
sS'kwargs'
p244
g21
ssg74
I246
sg75
(dp245
I241
S''
sI242
S'def require_open_cursor(fn):'
p246
sI243
S'    def _fn(self, *args, **kwargs):'
p247
sI244
S'        if self.cursor == None:'
p248
sI245
S'            raise CursorClosedError()'
p249
sI246
S'        return fn(self, *args, **kwargs)'
p250
sI247
S'    return _fn'
p251
sI248
S''
sI249
S'##'
p252
sI250
S'# The class of object returned by the {@link #ConnectionWrapper.cursor cursor method}.'
p253
ssg87
S"(self=<gluon.contrib.pg8000.dbapi.CursorWrapper object>, *args=('ALTER TABLE paciente ADD na+ VARCHAR(512);',), **kwargs={})"
p254
sg89
S'_fn'
p255
sa(dp256
g66
S'D:\\Desenvolvimento\\web2py\\gluon\\contrib\\pg8000\\dbapi.py'
p257
sg68
(dp258
S'self._execute'
p259
S'<bound method CursorWrapper._execute of <gluon.contrib.pg8000.dbapi.CursorWrapper object>>'
p260
sS'self'
p261
S'<gluon.contrib.pg8000.dbapi.CursorWrapper object>'
p262
sS'args'
p263
S'()'
p264
sS'operation'
p265
S"'ALTER TABLE paciente ADD na+ VARCHAR(512);'"
p266
ssg74
I317
sg75
(dp267
I320
S'        new_query, new_args = convert_paramstyle(paramstyle, operation, args)'
p268
sI321
S'        try:'
p269
sI312
S'    @require_open_cursor'
p270
sI313
S'    def execute(self, operation, args=()):'
p271
sI314
S'        if not self._connection.in_transaction:'
p272
sI315
S'            self._connection.begin()'
p273
sI316
S'        self._override_rowcount = None'
p274
sI317
S'        self._execute(operation, args)'
p275
sI318
S''
sI319
S'    def _execute(self, operation, args=()):'
p276
ssg87
S"(self=<gluon.contrib.pg8000.dbapi.CursorWrapper object>, operation='ALTER TABLE paciente ADD na+ VARCHAR(512);', args=())"
p277
sg89
g209
sa(dp278
g66
S'D:\\Desenvolvimento\\web2py\\gluon\\contrib\\pg8000\\dbapi.py'
p279
sg68
(dp280
S'new_args'
p281
S'()'
p282
sS'self.cursor'
p283
S'<gluon.contrib.pg8000.interface.Cursor object>'
p284
sS'self'
p285
S'<gluon.contrib.pg8000.dbapi.CursorWrapper object>'
p286
sS'new_query'
p287
S"'ALTER TABLE paciente ADD na+ VARCHAR(512);'"
p288
sS'self.cursor.execute'
p289
S'<bound method Cursor.execute of <gluon.contrib.pg8000.interface.Cursor object>>'
p290
ssg74
I322
sg75
(dp291
I320
S'        new_query, new_args = convert_paramstyle(paramstyle, operation, args)'
p292
sI321
S'        try:'
p293
sI322
S'            self.cursor.execute(new_query, *new_args)'
p294
sI323
S'        except ConnectionClosedError:'
p295
sI324
S"            # can't rollback in this case"
p296
sI325
S'            raise'
p297
sI326
S'        except:'
p298
sI317
S'        self._execute(operation, args)'
p299
sI318
S''
sI319
S'    def _execute(self, operation, args=()):'
p300
ssg87
S"(self=<gluon.contrib.pg8000.dbapi.CursorWrapper object>, operation='ALTER TABLE paciente ADD na+ VARCHAR(512);', args=())"
p301
sg89
S'_execute'
p302
sa(dp303
g66
S'D:\\Desenvolvimento\\web2py\\gluon\\contrib\\pg8000\\interface.py'
p304
sg68
(dp305
S'x'
g119
sS'args'
p306
S'()'
p307
sS'builtintype'
p308
S"<type 'type'>"
p309
sS'self._stmt'
p310
S'<gluon.contrib.pg8000.interface.PreparedStatement object>'
p311
sS'self'
p312
S'<gluon.contrib.pg8000.interface.Cursor object>'
p313
sS'self.connection'
p314
S'<gluon.contrib.pg8000.interface.Connection object>'
p315
sS'global PreparedStatement'
p316
S"<class 'gluon.contrib.pg8000.interface.PreparedStatement'>"
p317
sS'statement_name'
p318
g119
sS'query'
p319
S"'ALTER TABLE paciente ADD na+ VARCHAR(512);'"
p320
ssg74
I398
sg75
(dp321
I393
S'                # use PostgreSQL Simple Query Protocol'
p322
sI394
S'                ## print "SimpleQuery:", query'
p323
sI395
S'                self._stmt = SimpleStatement(self.connection, query)'
p324
sI396
S'            else:'
p325
sI397
S'                # use PostgreSQL Extended Query Protocol'
p326
sI398
S'                self._stmt = PreparedStatement(self.connection, query, statement_name="", *[{"type": type(x), "value": x} for x in args])'
p327
sI399
S'            self._stmt.execute(*args, **kwargs)'
p328
sI400
S'        finally:'
p329
sI401
S'            self.connection._unnamed_prepared_statement_lock.release()'
p330
sI402
S''
ssg87
S"(self=<gluon.contrib.pg8000.interface.Cursor object>, query='ALTER TABLE paciente ADD na+ VARCHAR(512);', *args=(), **kwargs={})"
p331
sg89
g209
sa(dp332
g66
S'D:\\Desenvolvimento\\web2py\\gluon\\contrib\\pg8000\\interface.py'
p333
sg68
(dp334
S'self.c'
p335
S'<gluon.contrib.pg8000.protocol.Connection object>'
p336
sS'self'
p337
S'<gluon.contrib.pg8000.interface.PreparedStatement object>'
p338
sS'self.c.parse'
p339
S'<bound method Connection._fn of <gluon.contrib.pg8000.protocol.Connection object>>'
p340
sS'self._statement_name'
p341
S"''"
p342
sS'self._parse_row_desc'
p343
g119
sS'statement'
p344
S"'ALTER TABLE paciente ADD na+ VARCHAR(512);'"
p345
sS'types'
p346
S'()'
p347
ssg74
I138
sg75
(dp348
I133
S'        self._statement_name = kwargs.get("statement_name", "pg8000_statement_%s" % self._statement_number)'
p349
sI134
S'        self._row_desc = None'
p350
sI135
S'        self._cached_rows = []'
p351
sI136
S'        self._ongoing_row_count = 0'
p352
sI137
S'        self._command_complete = True'
p353
sI138
S'        self._parse_row_desc = self.c.parse(self._statement_name, statement, types)'
p354
sI139
S'        self._lock = threading.RLock()'
p355
sI140
S''
sI141
S'    def close(self):'
p356
sI142
S'        if self._statement_name != "": # don\'t close unnamed statement'
p357
ssg87
S"(self=<gluon.contrib.pg8000.interface.PreparedStatement object>, connection=<gluon.contrib.pg8000.interface.Connection object>, statement='ALTER TABLE paciente ADD na+ VARCHAR(512);', *types=(), **kwargs={'statement_name': ''})"
p358
sg89
g26
sa(dp359
g66
S'D:\\Desenvolvimento\\web2py\\gluon\\contrib\\pg8000\\protocol.py'
p360
sg68
(dp361
S'self'
p362
S'<gluon.contrib.pg8000.protocol.Connection object>'
p363
sS'args'
p364
S"('', 'ALTER TABLE paciente ADD na+ VARCHAR(512);', ())"
p365
sS'fn'
p366
S'<function parse>'
p367
sS'kwargs'
p368
g21
ssg74
I943
sg75
(dp369
I938
S''
sI939
S'def sync_on_error(fn):'
p370
sI940
S'    def _fn(self, *args, **kwargs):'
p371
sI941
S'        try:'
p372
sI942
S'            self._sock_lock.acquire()'
p373
sI943
S'            return fn(self, *args, **kwargs)'
p374
sI944
S'        except:'
p375
sI945
S'            self._sync()'
p376
sI946
S'            raise'
p377
sI947
S'        finally:'
p378
ssg87
S"(self=<gluon.contrib.pg8000.protocol.Connection object>, *args=('', 'ALTER TABLE paciente ADD na+ VARCHAR(512);', ()), **kwargs={})"
p379
sg89
g255
sa(dp380
g66
S'D:\\Desenvolvimento\\web2py\\gluon\\contrib\\pg8000\\protocol.py'
p381
sg68
(dp382
S'reader.handle_messages'
p383
S'<bound method MessageReader.handle_messages of <gluon.contrib.pg8000.protocol.MessageReader object>>'
p384
sS'reader'
p385
S'<gluon.contrib.pg8000.protocol.MessageReader object>'
p386
ssg74
I1104
sg75
(dp387
I1099
S'        reader.add_message(NoData, lambda msg: (None, param_fc))'
p388
sI1100
S''
sI1101
S'        # Common row description response'
p389
sI1102
S'        reader.add_message(RowDescription, lambda msg: (msg, param_fc))'
p390
sI1103
S''
sI1104
S'        return reader.handle_messages()'
p391
sI1105
S''
sI1106
S'    @sync_on_error'
p392
sI1107
S'    def bind(self, portal, statement, params, parse_data, copy_stream):'
p393
sI1108
S'        self.verifyState("ready")'
p394
ssg87
S"(self=<gluon.contrib.pg8000.protocol.Connection object>, statement='', qs='ALTER TABLE paciente ADD na+ VARCHAR(512);', param_types=[])"
p395
sg89
S'parse'
p396
sa(dp397
g66
S'D:\\Desenvolvimento\\web2py\\gluon\\contrib\\pg8000\\protocol.py'
p398
sg68
(dp399
S'exc'
p400
S'ProgrammingError(\'ERROR\', \'42601\', \'syntax error at or near "+"\')'
p401
ssg74
I929
sg75
(dp402
I928
S'                if not self.delay_raising_exception:'
p403
sI929
S'                    raise exc'
p404
sI930
S'            elif isinstance(msg, NoticeResponse):'
p405
sI931
S'                self._conn.handleNoticeResponse(msg)'
p406
sI932
S'            elif isinstance(msg, ParameterStatus):'
p407
sI933
S'                self._conn.handleParameterStatus(msg)'
p408
sI924
S'            if msg_handled:'
p409
sI925
S'                continue'
p410
sI926
S'            elif isinstance(msg, ErrorResponse):'
p411
sI927
S'                exc = msg.createException()'
p412
ssg87
S'(self=<gluon.contrib.pg8000.protocol.MessageReader object>)'
p413
sg89
S'handle_messages'
p414
sasS'pyver'
p415
S'Python 2.7: C:\\Python27\\python.exe (prefix: C:\\Python27)'
p416
sS'session'
p417
g61
(S's\x1a\x00\x00\x00<div><table></table></div>'
tRp418
sS'etype'
p419
S"<class 'gluon.contrib.pg8000.errors.ProgrammingError'>"
p420
sS'date'
p421
S'Mon Dec 15 15:57:52 2014'
p422
sS'response'
p423
g61
(S's\x13\x18\x00\x00<div><table><tr><td style="font-weight:bold;vertical-align:top;">body</td><td style="vertical-align:top;">:</td><td><div>&lt;cStringIO.StringO object at 0x083D17A0&gt;</div></td></tr><tr><td style="font-weight:bold;vertical-align:top;">cookies</td><td style="vertical-align:top;">:</td><td><div><table><tr><td style="font-weight:bold;vertical-align:top;">session_id_anestesia</td><td style="vertical-align:top;">:</td><td><div>127.0.0.1-f3e79e0a-00f4-4121-a50b-cf8a4b1af40b<table><tr><td style="font-weight:bold;vertical-align:top;">comment</td><td style="vertical-align:top;">:</td><td><div></div></td></tr><tr><td style="font-weight:bold;vertical-align:top;">domain</td><td style="vertical-align:top;">:</td><td><div></div></td></tr><tr><td style="font-weight:bold;vertical-align:top;">expires</td><td style="vertical-align:top;">:</td><td><div></div></td></tr><tr><td style="font-weight:bold;vertical-align:top;">httponly</td><td style="vertical-align:top;">:</td><td><div></div></td></tr><tr><td style="font-weight:bold;vertical-align:top;">max-age</td><td style="vertical-align:top;">:</td><td><div></div></td></tr><tr><td style="font-weight:bold;vertical-align:top;">path</td><td style="vertical-align:top;">:</td><td><div>/</div></td></tr><tr><td style="font-weight:bold;vertical-align:top;">secure</td><td style="vertical-align:top;">:</td><td><div></div></td></tr><tr><td style="font-weight:bold;vertical-align:top;">version</td><td style="vertical-align:top;">:</td><td><div></div></td></tr></table></div></td></tr></table></div></td></tr><tr><td style="font-weight:bold;vertical-align:top;">delimiters</td><td style="vertical-align:top;">:</td><td><div><table><tr><td><div>{{</div></td></tr><tr><td><div>}}</div></td></tr></table></div></td></tr><tr><td style="font-weight:bold;vertical-align:top;">files</td><td style="vertical-align:top;">:</td><td><div><table></table></div></td></tr><tr><td style="font-weight:bold;vertical-align:top;">flash</td><td style="vertical-align:top;">:</td><td><div></div></td></tr><tr><td style="font-weight:bold;vertical-align:top;">form_label_separator</td><td style="vertical-align:top;">:</td><td><div>: </div></td></tr><tr><td style="font-weight:bold;vertical-align:top;">formstyle</td><td style="vertical-align:top;">:</td><td><div>table3cols</div></td></tr><tr><td style="font-weight:bold;vertical-align:top;">generic_patterns</td><td style="vertical-align:top;">:</td><td><div><table><tr><td><div>*</div></td></tr></table></div></td></tr><tr><td style="font-weight:bold;vertical-align:top;">headers</td><td style="vertical-align:top;">:</td><td><div><table><tr><td style="font-weight:bold;vertical-align:top;">X-Powered-By</td><td style="vertical-align:top;">:</td><td><div>web2py</div></td></tr></table></div></td></tr><tr><td style="font-weight:bold;vertical-align:top;">menu</td><td style="vertical-align:top;">:</td><td><div><table></table></div></td></tr><tr><td style="font-weight:bold;vertical-align:top;">meta</td><td style="vertical-align:top;">:</td><td><div><table></table></div></td></tr><tr><td style="font-weight:bold;vertical-align:top;">models_to_run</td><td style="vertical-align:top;">:</td><td><div><table><tr><td><div>^\\w+\\.py$</div></td></tr><tr><td><div>^pagina_incluir/\\w+\\.py$</div></td></tr><tr><td><div>^pagina_incluir/index/\\w+\\.py$</div></td></tr></table></div></td></tr><tr><td style="font-weight:bold;vertical-align:top;">postprocessing</td><td style="vertical-align:top;">:</td><td><div><table></table></div></td></tr><tr><td style="font-weight:bold;vertical-align:top;">session_client</td><td style="vertical-align:top;">:</td><td><div>127.0.0.1</div></td></tr><tr><td style="font-weight:bold;vertical-align:top;">session_cookie_compression_level</td><td style="vertical-align:top;">:</td><td><div>None</div></td></tr><tr><td style="font-weight:bold;vertical-align:top;">session_cookie_expires</td><td style="vertical-align:top;">:</td><td><div>None</div></td></tr><tr><td style="font-weight:bold;vertical-align:top;">session_cookie_key</td><td style="vertical-align:top;">:</td><td><div>None</div></td></tr><tr><td style="font-weight:bold;vertical-align:top;">session_data_name</td><td style="vertical-align:top;">:</td><td><div>session_data_anestesia</div></td></tr><tr><td style="font-weight:bold;vertical-align:top;">session_file</td><td style="vertical-align:top;">:</td><td><div>&lt;open file &#x27;D:\\Desenvolvimento\\web2py\\applications\\anestesia\\sessions\\138\\0b3\\127.0.0.1-f3e79e0a-00f4-4121-a50b-cf8a4b1af40b&#x27;, mode &#x27;rb+&#x27; at 0x08BA8390&gt;</div></td></tr><tr><td style="font-weight:bold;vertical-align:top;">session_filename</td><td style="vertical-align:top;">:</td><td><div>D:\\Desenvolvimento\\web2py\\applications\\anestesia\\sessions\\127.0.0.1-f3e79e0a-00f4-4121-a50b-cf8a4b1af40b</div></td></tr><tr><td style="font-weight:bold;vertical-align:top;">session_hash</td><td style="vertical-align:top;">:</td><td><div>f05a373a208d5b0fddb0cc6d10c86f3b</div></td></tr><tr><td style="font-weight:bold;vertical-align:top;">session_id</td><td style="vertical-align:top;">:</td><td><div>127.0.0.1-f3e79e0a-00f4-4121-a50b-cf8a4b1af40b</div></td></tr><tr><td style="font-weight:bold;vertical-align:top;">session_id_name</td><td style="vertical-align:top;">:</td><td><div>session_id_anestesia</div></td></tr><tr><td style="font-weight:bold;vertical-align:top;">session_locked</td><td style="vertical-align:top;">:</td><td><div>True</div></td></tr><tr><td style="font-weight:bold;vertical-align:top;">session_masterapp</td><td style="vertical-align:top;">:</td><td><div>anestesia</div></td></tr><tr><td style="font-weight:bold;vertical-align:top;">session_new</td><td style="vertical-align:top;">:</td><td><div>False</div></td></tr><tr><td style="font-weight:bold;vertical-align:top;">session_storage_type</td><td style="vertical-align:top;">:</td><td><div>file</div></td></tr><tr><td style="font-weight:bold;vertical-align:top;">status</td><td style="vertical-align:top;">:</td><td><div>200</div></td></tr><tr><td style="font-weight:bold;vertical-align:top;">view</td><td style="vertical-align:top;">:</td><td><div>pagina_incluir/index.html</div></td></tr></table></div>'
tRp424
sS'locals'
p425
(dp426
S'exc'
p427
S'ProgrammingError(\'ERROR\', \'42601\', \'syntax error at or near "+"\')'
p428
sS'msg_class'
p429
S"<class 'gluon.contrib.pg8000.protocol.RowDescription'>"
p430
sS'self'
p431
S'<gluon.contrib.pg8000.protocol.MessageReader object>'
p432
sg46
S'()'
p433
sS'handler'
p434
S'<function <lambda>>'
p435
sS'kwargs'
p436
g21
sS'msg'
p437
S'<ErrorResponse ERROR 42601 \'syntax error at or near "+"\'>'
p438
sS'msg_handled'
p439
g156
sssS'traceback'
p440
S'Traceback (most recent call last):\n  File "D:\\Desenvolvimento\\web2py\\gluon\\restricted.py", line 224, in restricted\n    exec ccode in environment\n  File "D:\\Desenvolvimento\\web2py\\applications\\anestesia\\models\\db.py", line 207, in <module>\n    Field(\'cirurgiao\', \'string\'),\n  File "D:\\Desenvolvimento\\web2py\\gluon\\dal.py", line 8414, in define_table\n    table = self.lazy_define_table(tablename, *fields, **args)\n  File "D:\\Desenvolvimento\\web2py\\gluon\\dal.py", line 8450, in lazy_define_table\n    polymodel=polymodel)\n  File "D:\\Desenvolvimento\\web2py\\gluon\\dal.py", line 1134, in create_table\n    fake_migrate=fake_migrate\n  File "D:\\Desenvolvimento\\web2py\\gluon\\dal.py", line 1246, in migrate_table\n    self.execute(sub_query)\n  File "D:\\Desenvolvimento\\web2py\\gluon\\dal.py", line 1967, in execute\n    return self.log_execute(*a, **b)\n  File "D:\\Desenvolvimento\\web2py\\gluon\\dal.py", line 1961, in log_execute\n    ret = self.cursor.execute(command, *a[1:], **b)\n  File "D:\\Desenvolvimento\\web2py\\gluon\\contrib\\pg8000\\dbapi.py", line 246, in _fn\n    return fn(self, *args, **kwargs)\n  File "D:\\Desenvolvimento\\web2py\\gluon\\contrib\\pg8000\\dbapi.py", line 317, in execute\n    self._execute(operation, args)\n  File "D:\\Desenvolvimento\\web2py\\gluon\\contrib\\pg8000\\dbapi.py", line 322, in _execute\n    self.cursor.execute(new_query, *new_args)\n  File "D:\\Desenvolvimento\\web2py\\gluon\\contrib\\pg8000\\interface.py", line 398, in execute\n    self._stmt = PreparedStatement(self.connection, query, statement_name="", *[{"type": type(x), "value": x} for x in args])\n  File "D:\\Desenvolvimento\\web2py\\gluon\\contrib\\pg8000\\interface.py", line 138, in __init__\n    self._parse_row_desc = self.c.parse(self._statement_name, statement, types)\n  File "D:\\Desenvolvimento\\web2py\\gluon\\contrib\\pg8000\\protocol.py", line 943, in _fn\n    return fn(self, *args, **kwargs)\n  File "D:\\Desenvolvimento\\web2py\\gluon\\contrib\\pg8000\\protocol.py", line 1104, in parse\n    return reader.handle_messages()\n  File "D:\\Desenvolvimento\\web2py\\gluon\\contrib\\pg8000\\protocol.py", line 929, in handle_messages\n    raise exc\nProgrammingError: (\'ERROR\', \'42601\', \'syntax error at or near "+"\')\n'
p441
s.