(dp1
S'output'
p2
S''
sS'layer'
p3
S'Framework'
p4
sS'code'
p5
S''
sS'snapshot'
p6
(dp7
S'exception'
p8
(dp9
S'__getslice__'
p10
S"<method-wrapper '__getslice__' of exceptions.WindowsError object>"
p11
sS'__str__'
p12
S"<method-wrapper '__str__' of exceptions.WindowsError object>"
p13
sS'__reduce__'
p14
S'<built-in method __reduce__ of exceptions.WindowsError object>'
p15
sS'__dict__'
p16
S'{}'
p17
sS'__sizeof__'
p18
S'<built-in method __sizeof__ of exceptions.WindowsError object>'
p19
sS'__init__'
p20
S"<method-wrapper '__init__' of exceptions.WindowsError object>"
p21
sS'__setattr__'
p22
S"<method-wrapper '__setattr__' of exceptions.WindowsError object>"
p23
sS'__reduce_ex__'
p24
S'<built-in method __reduce_ex__ of exceptions.WindowsError object>'
p25
sS'__new__'
p26
S'<built-in method __new__ of type object>'
p27
sS'errno'
p28
S'17'
p29
sS'__format__'
p30
S'<built-in method __format__ of exceptions.WindowsError object>'
p31
sS'__class__'
p32
S"<type 'exceptions.WindowsError'>"
p33
sS'filename'
p34
S"r'D:\\Desenvolvimento\\web2py\\web2py\\applications\\anestesia\\databases'"
p35
sS'__doc__'
p36
S"'MS-Windows OS system call failed.'"
p37
sS'__getitem__'
p38
S"<method-wrapper '__getitem__' of exceptions.WindowsError object>"
p39
sS'__setstate__'
p40
S'<built-in method __setstate__ of exceptions.WindowsError object>'
p41
sS'__getattribute__'
p42
S"<method-wrapper '__getattribute__' of exceptions.WindowsError object>"
p43
sS'args'
p44
S"(183, 'N\\xe3o \\xe9 poss\\xedvel criar um arquivo j\\xe1 existente')"
p45
sS'__subclasshook__'
p46
S'<built-in method __subclasshook__ of type object>'
p47
sS'__unicode__'
p48
S'<built-in method __unicode__ of exceptions.WindowsError object>'
p49
sS'winerror'
p50
S'183'
p51
sS'strerror'
p52
S"'N\\xe3o \\xe9 poss\\xedvel criar um arquivo j\\xe1 existente'"
p53
sS'__delattr__'
p54
S"<method-wrapper '__delattr__' of exceptions.WindowsError object>"
p55
sS'__repr__'
p56
S"<method-wrapper '__repr__' of exceptions.WindowsError object>"
p57
sS'__hash__'
p58
S"<method-wrapper '__hash__' of exceptions.WindowsError object>"
p59
ssS'evalue'
p60
S"[Error 183] N\xe3o \xe9 poss\xedvel criar um arquivo j\xe1 existente: 'D:\\\\Desenvolvimento\\\\web2py\\\\web2py\\\\applications\\\\anestesia\\\\databases'"
p61
sS'request'
p62
cgluon.html
XML_unpickle
p63
(S's\x8cT\x00\x00<div><table><tr><td style="font-weight:bold;vertical-align:top;">ajax</td><td style="vertical-align:top;">:</td><td><div>False</div></td></tr><tr><td style="font-weight:bold;vertical-align:top;">application</td><td style="vertical-align:top;">:</td><td><div>anestesia</div></td></tr><tr><td style="font-weight:bold;vertical-align:top;">args</td><td style="vertical-align:top;">:</td><td><div><table></table></div></td></tr><tr><td style="font-weight:bold;vertical-align:top;">cid</td><td style="vertical-align:top;">:</td><td><div>None</div></td></tr><tr><td style="font-weight:bold;vertical-align:top;">client</td><td style="vertical-align:top;">:</td><td><div>127.0.0.1</div></td></tr><tr><td style="font-weight:bold;vertical-align:top;">controller</td><td style="vertical-align:top;">:</td><td><div>default</div></td></tr><tr><td style="font-weight:bold;vertical-align:top;">cookies</td><td style="vertical-align:top;">:</td><td><div><table></table></div></td></tr><tr><td style="font-weight:bold;vertical-align:top;">env</td><td style="vertical-align:top;">:</td><td><div><table><tr><td style="font-weight:bold;vertical-align:top;">HTTP_ACCEPT</td><td style="vertical-align:top;">:</td><td><div>text/html,application/xhtml+xml,application/xml;q=0.9,image/webp,*/*;q=0.8</div></td></tr><tr><td style="font-weight:bold;vertical-align:top;">HTTP_ACCEPT_ENCODING</td><td style="vertical-align:top;">:</td><td><div>gzip, deflate, sdch</div></td></tr><tr><td style="font-weight:bold;vertical-align:top;">HTTP_ACCEPT_LANGUAGE</td><td style="vertical-align:top;">:</td><td><div>pt-BR,pt;q=0.8,en-US;q=0.6,en;q=0.4</div></td></tr><tr><td style="font-weight:bold;vertical-align:top;">HTTP_CONNECTION</td><td style="vertical-align:top;">:</td><td><div>keep-alive</div></td></tr><tr><td style="font-weight:bold;vertical-align:top;">HTTP_COOKIE</td><td style="vertical-align:top;">:</td><td><div>session_data_examples=&quot;a632629af9fb55f9fa76a3571908672d:sN1Elcivdjn9AEoZt6p9CH1OYrd76hTOUSbiLoxyR_yP3VUKl1SZjORiT_6q2TsxL5KRFbKY7XlUqLQ8qUQ9fdKSc6SQwqz_hs_xRWB1svIa4GO-qZqNh0xkugb0opWHtCh3BhX5xMfeMOBP2L6lUMmh1yUcuvaOH6visCdSEsDn4ByzGUN5ylEsNFejbxELSaAOwlYRb4roFr9TXARwSQ0S6u7zw0eItm2g8Z9bm7H55aH4W870LM4wPH3cOGqzJmQwzbOivkXCtr0z5-WQ_HDnS1WI3ZTDruG4FQa_MF9avDDeu6JZ8vLf9CeyaUOT&quot;; session_id_examples=True; session_id_myappzero=127.0.0.1-41ad397c-50c5-4858-9e39-6c5ae8bdc5a1; session_id_voto=127.0.0.1-8786c067-43b4-459a-8441-749730cd2042; session_id_myapp=127.0.0.1-dd8a077d-66b1-4b2d-808d-5213f9618b8a; session_id_formulario=127.0.0.1-ad3203e2-ca0b-480a-bc23-84d358ff6197; session_id_controle=127.0.0.1-8d5cd6e4-1136-46a7-8777-e2dc8b975cc3; session_id_anestesia=127.0.0.1-70b822ec-0586-42fe-8bd0-1e3d851af9d1; session_id_admin=127.0.0.1-a4279c43-e62e-478c-b8ae-5f936e743264; session_id_welcome=127.0.0.1-681ee77d-187b-4fb2-9d07-b68d64a9a1e4</div></td></tr><tr><td style="font-weight:bold;vertical-align:top;">HTTP_HOST</td><td style="vertical-align:top;">:</td><td><div>127.0.0.1:8000</div></td></tr><tr><td style="font-weight:bold;vertical-align:top;">HTTP_USER_AGENT</td><td style="vertical-align:top;">:</td><td><div>Mozilla/5.0 (Windows NT 6.3; WOW64) AppleWebKit/537.36 (KHTML, like Gecko) Chrome/39.0.2171.65 Safari/537.36</div></td></tr><tr><td style="font-weight:bold;vertical-align:top;">PATH_INFO</td><td style="vertical-align:top;">:</td><td><div>/anestesia</div></td></tr><tr><td style="font-weight:bold;vertical-align:top;">QUERY_STRING</td><td style="vertical-align:top;">:</td><td><div></div></td></tr><tr><td style="font-weight:bold;vertical-align:top;">REMOTE_ADDR</td><td style="vertical-align:top;">:</td><td><div>127.0.0.1</div></td></tr><tr><td style="font-weight:bold;vertical-align:top;">REMOTE_PORT</td><td style="vertical-align:top;">:</td><td><div>63302</div></td></tr><tr><td style="font-weight:bold;vertical-align:top;">REQUEST_METHOD</td><td style="vertical-align:top;">:</td><td><div>GET</div></td></tr><tr><td style="font-weight:bold;vertical-align:top;">SCRIPT_NAME</td><td style="vertical-align:top;">:</td><td><div></div></td></tr><tr><td style="font-weight:bold;vertical-align:top;">SERVER_NAME</td><td style="vertical-align:top;">:</td><td><div>MOHAMED-DTIC</div></td></tr><tr><td style="font-weight:bold;vertical-align:top;">SERVER_PORT</td><td style="vertical-align:top;">:</td><td><div>8000</div></td></tr><tr><td style="font-weight:bold;vertical-align:top;">SERVER_PROTOCOL</td><td style="vertical-align:top;">:</td><td><div>HTTP/1.1</div></td></tr><tr><td style="font-weight:bold;vertical-align:top;">SERVER_SOFTWARE</td><td style="vertical-align:top;">:</td><td><div>Rocket 1.2.6</div></td></tr><tr><td style="font-weight:bold;vertical-align:top;">app_folders</td><td style="vertical-align:top;">:</td><td><div>set([&#x27;D:\\\\Desenvolvimento\\\\web2py\\\\web2py\\\\applications\\\\welcome\\\\&#x27;, &#x27;D:\\\\Desenvolvimento\\\\web2py\\\\web2py\\\\applications\\\\anestesia\\\\&#x27;])</div></td></tr><tr><td style="font-weight:bold;vertical-align:top;">applications_parent</td><td style="vertical-align:top;">:</td><td><div>D:\\Desenvolvimento\\web2py\\web2py</div></td></tr><tr><td style="font-weight:bold;vertical-align:top;">cmd_args</td><td style="vertical-align:top;">:</td><td><div><table></table></div></td></tr><tr><td style="font-weight:bold;vertical-align:top;">cmd_options</td><td style="vertical-align:top;">:</td><td><div>&lt;Values at 0x322b800: {&#x27;verbose&#x27;: False, &#x27;ip&#x27;: &#x27;127.0.0.1&#x27;, &#x27;debuglevel&#x27;: 30, &#x27;with_scheduler&#x27;: False, &#x27;ips&#x27;: [&#x27;192.168.71.1&#x27;, &#x27;fe80::4023:9900:3196:7ccb%5&#x27;, &#x27;10.129.18.33&#x27;, &#x27;192.168.16.1&#x27;, &#x27;fe80::6dc3:bcf7:daee:374c%7&#x27;, &#x27;fe80::4932:49bd:49c6:6ebe%3&#x27;], &#x27;shutdown_timeout&#x27;: 5, &#x27;taskbar&#x27;: False, &#x27;with_coverage&#x27;: False, &#x27;scheduler_groups&#x27;: None, &#x27;port&#x27;: 8000, &#x27;maxthreads&#x27;: None, &#x27;softcron&#x27;: False, &#x27;server_name&#x27;: &#x27;MOHAMED-DTIC&#x27;, &#x27;bpython&#x27;: False, &#x27;nogui&#x27;: False, &#x27;pid_filename&#x27;: &#x27;httpserver.pid&#x27;, &#x27;extcron&#x27;: False, &#x27;runcron&#x27;: False, &#x27;run_system_tests&#x27;: False, &#x27;test&#x27;: None, &#x27;folder&#x27;: &#x27;D:\\\\Desenvolvimento\\\\web2py\\\\web2py&#x27;, &#x27;config&#x27;: &#x27;&#x27;, &#x27;minthreads&#x27;: None, &#x27;shell&#x27;: None, &#x27;run&#x27;: &#x27;&#x27;, &#x27;log_filename&#x27;: &#x27;httpserver.log&#x27;, &#x27;profiler_dir&#x27;: None, &#x27;args&#x27;: [&#x27;&#x27;], &#x27;socket_timeout&#x27;: 5, &#x27;ssl_ca_certificate&#x27;: None, &#x27;scheduler&#x27;: None, &#x27;interfaces&#x27;: None, &#x27;ssl_private_key&#x27;: &#x27;&#x27;, &#x27;gae&#x27;: None, &#x27;password&#x27;: &#x27;&lt;ask&gt;&#x27;, &#x27;request_queue_size&#x27;: 5, &#x27;ssl_certificate&#x27;: &#x27;&#x27;, &#x27;cronjob&#x27;: False, &#x27;numthreads&#x27;: None, &#x27;quiet&#x27;: False, &#x27;import_models&#x27;: False, &#x27;timeout&#x27;: 10, &#x27;plain&#x27;: False, &#x27;nobanner&#x27;: False}&gt;</div></td></tr><tr><td style="font-weight:bold;vertical-align:top;">db_sessions</td><td style="vertical-align:top;">:</td><td><div>set([])</div></td></tr><tr><td style="font-weight:bold;vertical-align:top;">debugging</td><td style="vertical-align:top;">:</td><td><div>False</div></td></tr><tr><td style="font-weight:bold;vertical-align:top;">gluon_parent</td><td style="vertical-align:top;">:</td><td><div>D:\\Desenvolvimento\\web2py\\web2py</div></td></tr><tr><td style="font-weight:bold;vertical-align:top;">http_accept</td><td style="vertical-align:top;">:</td><td><div>text/html,application/xhtml+xml,application/xml;q=0.9,image/webp,*/*;q=0.8</div></td></tr><tr><td style="font-weight:bold;vertical-align:top;">http_accept_encoding</td><td style="vertical-align:top;">:</td><td><div>gzip, deflate, sdch</div></td></tr><tr><td style="font-weight:bold;vertical-align:top;">http_accept_language</td><td style="vertical-align:top;">:</td><td><div>pt-BR,pt;q=0.8,en-US;q=0.6,en;q=0.4</div></td></tr><tr><td style="font-weight:bold;vertical-align:top;">http_connection</td><td style="vertical-align:top;">:</td><td><div>keep-alive</div></td></tr><tr><td style="font-weight:bold;vertical-align:top;">http_cookie</td><td style="vertical-align:top;">:</td><td><div>session_data_examples=&quot;a632629af9fb55f9fa76a3571908672d:sN1Elcivdjn9AEoZt6p9CH1OYrd76hTOUSbiLoxyR_yP3VUKl1SZjORiT_6q2TsxL5KRFbKY7XlUqLQ8qUQ9fdKSc6SQwqz_hs_xRWB1svIa4GO-qZqNh0xkugb0opWHtCh3BhX5xMfeMOBP2L6lUMmh1yUcuvaOH6visCdSEsDn4ByzGUN5ylEsNFejbxELSaAOwlYRb4roFr9TXARwSQ0S6u7zw0eItm2g8Z9bm7H55aH4W870LM4wPH3cOGqzJmQwzbOivkXCtr0z5-WQ_HDnS1WI3ZTDruG4FQa_MF9avDDeu6JZ8vLf9CeyaUOT&quot;; session_id_examples=True; session_id_myappzero=127.0.0.1-41ad397c-50c5-4858-9e39-6c5ae8bdc5a1; session_id_voto=127.0.0.1-8786c067-43b4-459a-8441-749730cd2042; session_id_myapp=127.0.0.1-dd8a077d-66b1-4b2d-808d-5213f9618b8a; session_id_formulario=127.0.0.1-ad3203e2-ca0b-480a-bc23-84d358ff6197; session_id_controle=127.0.0.1-8d5cd6e4-1136-46a7-8777-e2dc8b975cc3; session_id_anestesia=127.0.0.1-70b822ec-0586-42fe-8bd0-1e3d851af9d1; session_id_admin=127.0.0.1-a4279c43-e62e-478c-b8ae-5f936e743264; session_id_welcome=127.0.0.1-681ee77d-187b-4fb2-9d07-b68d64a9a1e4</div></td></tr><tr><td style="font-weight:bold;vertical-align:top;">http_host</td><td style="vertical-align:top;">:</td><td><div>127.0.0.1:8000</div></td></tr><tr><td style="font-weight:bold;vertical-align:top;">http_user_agent</td><td style="vertical-align:top;">:</td><td><div>Mozilla/5.0 (Windows NT 6.3; WOW64) AppleWebKit/537.36 (KHTML, like Gecko) Chrome/39.0.2171.65 Safari/537.36</div></td></tr><tr><td style="font-weight:bold;vertical-align:top;">is_jython</td><td style="vertical-align:top;">:</td><td><div>False</div></td></tr><tr><td style="font-weight:bold;vertical-align:top;">is_pypy</td><td style="vertical-align:top;">:</td><td><div>False</div></td></tr><tr><td style="font-weight:bold;vertical-align:top;">is_source</td><td style="vertical-align:top;">:</td><td><div>True</div></td></tr><tr><td style="font-weight:bold;vertical-align:top;">local_hosts</td><td style="vertical-align:top;">:</td><td><div><table><tr><td><div>192.168.71.1</div></td></tr><tr><td><div>fe80::4023:9900:3196:7ccb%5</div></td></tr><tr><td><div>fe80::6dc3:bcf7:daee:374c%7</div></td></tr><tr><td><div>::ffff:127.0.0.1</div></td></tr><tr><td><div>MOHAMED-DTIC</div></td></tr><tr><td><div>10.129.18.33</div></td></tr><tr><td><div>192.168.16.1</div></td></tr><tr><td><div>::1</div></td></tr><tr><td><div>MOHAMED-DTIC.unirio.br</div></td></tr><tr><td><div>127.0.0.1</div></td></tr><tr><td><div>fe80::4932:49bd:49c6:6ebe%3</div></td></tr></table></div></td></tr><tr><td style="font-weight:bold;vertical-align:top;">path_info</td><td style="vertical-align:top;">:</td><td><div>/anestesia</div></td></tr><tr><td style="font-weight:bold;vertical-align:top;">query_string</td><td style="vertical-align:top;">:</td><td><div></div></td></tr><tr><td style="font-weight:bold;vertical-align:top;">remote_addr</td><td style="vertical-align:top;">:</td><td><div>127.0.0.1</div></td></tr><tr><td style="font-weight:bold;vertical-align:top;">remote_port</td><td style="vertical-align:top;">:</td><td><div>63302</div></td></tr><tr><td style="font-weight:bold;vertical-align:top;">request_method</td><td style="vertical-align:top;">:</td><td><div>GET</div></td></tr><tr><td style="font-weight:bold;vertical-align:top;">request_uri</td><td style="vertical-align:top;">:</td><td><div>/anestesia</div></td></tr><tr><td style="font-weight:bold;vertical-align:top;">script_name</td><td style="vertical-align:top;">:</td><td><div></div></td></tr><tr><td style="font-weight:bold;vertical-align:top;">server_name</td><td style="vertical-align:top;">:</td><td><div>MOHAMED-DTIC</div></td></tr><tr><td style="font-weight:bold;vertical-align:top;">server_port</td><td style="vertical-align:top;">:</td><td><div>8000</div></td></tr><tr><td style="font-weight:bold;vertical-align:top;">server_protocol</td><td style="vertical-align:top;">:</td><td><div>HTTP/1.1</div></td></tr><tr><td style="font-weight:bold;vertical-align:top;">server_software</td><td style="vertical-align:top;">:</td><td><div>Rocket 1.2.6</div></td></tr><tr><td style="font-weight:bold;vertical-align:top;">web2py_path</td><td style="vertical-align:top;">:</td><td><div>D:\\Desenvolvimento\\web2py\\web2py</div></td></tr><tr><td style="font-weight:bold;vertical-align:top;">web2py_version</td><td style="vertical-align:top;">:</td><td><div>2.9.11-stable+timestamp.2014.09.15.23.35.11</div></td></tr><tr><td style="font-weight:bold;vertical-align:top;">wsgi.errors</td><td style="vertical-align:top;">:</td><td><div>&lt;open file &#x27;&lt;stderr&gt;&#x27;, mode &#x27;w&#x27; at 0x01CD50D0&gt;</div></td></tr><tr><td style="font-weight:bold;vertical-align:top;">wsgi.file_wrapper</td><td style="vertical-align:top;">:</td><td><div>&lt;class wsgiref.util.FileWrapper at 0x02B85D50&gt;</div></td></tr><tr><td style="font-weight:bold;vertical-align:top;">wsgi.input</td><td style="vertical-align:top;">:</td><td><div>&lt;socket._fileobject object at 0x036014B0&gt;</div></td></tr><tr><td style="font-weight:bold;vertical-align:top;">wsgi.multiprocess</td><td style="vertical-align:top;">:</td><td><div>False</div></td></tr><tr><td style="font-weight:bold;vertical-align:top;">wsgi.multithread</td><td style="vertical-align:top;">:</td><td><div>True</div></td></tr><tr><td style="font-weight:bold;vertical-align:top;">wsgi.run_once</td><td style="vertical-align:top;">:</td><td><div>False</div></td></tr><tr><td style="font-weight:bold;vertical-align:top;">wsgi.url_scheme</td><td style="vertical-align:top;">:</td><td><div>http</div></td></tr><tr><td style="font-weight:bold;vertical-align:top;">wsgi.version</td><td style="vertical-align:top;">:</td><td><div><table><tr><td><div>1</div></td></tr><tr><td><div>0</div></td></tr></table></div></td></tr><tr><td style="font-weight:bold;vertical-align:top;">wsgi_errors</td><td style="vertical-align:top;">:</td><td><div>&lt;open file &#x27;&lt;stderr&gt;&#x27;, mode &#x27;w&#x27; at 0x01CD50D0&gt;</div></td></tr><tr><td style="font-weight:bold;vertical-align:top;">wsgi_file_wrapper</td><td style="vertical-align:top;">:</td><td><div>&lt;class wsgiref.util.FileWrapper at 0x02B85D50&gt;</div></td></tr><tr><td style="font-weight:bold;vertical-align:top;">wsgi_input</td><td style="vertical-align:top;">:</td><td><div>&lt;socket._fileobject object at 0x036014B0&gt;</div></td></tr><tr><td style="font-weight:bold;vertical-align:top;">wsgi_multiprocess</td><td style="vertical-align:top;">:</td><td><div>False</div></td></tr><tr><td style="font-weight:bold;vertical-align:top;">wsgi_multithread</td><td style="vertical-align:top;">:</td><td><div>True</div></td></tr><tr><td style="font-weight:bold;vertical-align:top;">wsgi_run_once</td><td style="vertical-align:top;">:</td><td><div>False</div></td></tr><tr><td style="font-weight:bold;vertical-align:top;">wsgi_url_scheme</td><td style="vertical-align:top;">:</td><td><div>http</div></td></tr><tr><td style="font-weight:bold;vertical-align:top;">wsgi_version</td><td style="vertical-align:top;">:</td><td><div><table><tr><td><div>1</div></td></tr><tr><td><div>0</div></td></tr></table></div></td></tr></table></div></td></tr><tr><td style="font-weight:bold;vertical-align:top;">extension</td><td style="vertical-align:top;">:</td><td><div>html</div></td></tr><tr><td style="font-weight:bold;vertical-align:top;">folder</td><td style="vertical-align:top;">:</td><td><div>D:\\Desenvolvimento\\web2py\\web2py\\applications\\anestesia\\</div></td></tr><tr><td style="font-weight:bold;vertical-align:top;">function</td><td style="vertical-align:top;">:</td><td><div>index</div></td></tr><tr><td style="font-weight:bold;vertical-align:top;">global_settings</td><td style="vertical-align:top;">:</td><td><div><table><tr><td style="font-weight:bold;vertical-align:top;">app_folders</td><td style="vertical-align:top;">:</td><td><div>set([&#x27;D:\\\\Desenvolvimento\\\\web2py\\\\web2py\\\\applications\\\\welcome\\\\&#x27;, &#x27;D:\\\\Desenvolvimento\\\\web2py\\\\web2py\\\\applications\\\\anestesia\\\\&#x27;])</div></td></tr><tr><td style="font-weight:bold;vertical-align:top;">applications_parent</td><td style="vertical-align:top;">:</td><td><div>D:\\Desenvolvimento\\web2py\\web2py</div></td></tr><tr><td style="font-weight:bold;vertical-align:top;">cmd_args</td><td style="vertical-align:top;">:</td><td><div><table></table></div></td></tr><tr><td style="font-weight:bold;vertical-align:top;">cmd_options</td><td style="vertical-align:top;">:</td><td><div>&lt;Values at 0x322b800: {&#x27;verbose&#x27;: False, &#x27;ip&#x27;: &#x27;127.0.0.1&#x27;, &#x27;debuglevel&#x27;: 30, &#x27;with_scheduler&#x27;: False, &#x27;ips&#x27;: [&#x27;192.168.71.1&#x27;, &#x27;fe80::4023:9900:3196:7ccb%5&#x27;, &#x27;10.129.18.33&#x27;, &#x27;192.168.16.1&#x27;, &#x27;fe80::6dc3:bcf7:daee:374c%7&#x27;, &#x27;fe80::4932:49bd:49c6:6ebe%3&#x27;], &#x27;shutdown_timeout&#x27;: 5, &#x27;taskbar&#x27;: False, &#x27;with_coverage&#x27;: False, &#x27;scheduler_groups&#x27;: None, &#x27;port&#x27;: 8000, &#x27;maxthreads&#x27;: None, &#x27;softcron&#x27;: False, &#x27;server_name&#x27;: &#x27;MOHAMED-DTIC&#x27;, &#x27;bpython&#x27;: False, &#x27;nogui&#x27;: False, &#x27;pid_filename&#x27;: &#x27;httpserver.pid&#x27;, &#x27;extcron&#x27;: False, &#x27;runcron&#x27;: False, &#x27;run_system_tests&#x27;: False, &#x27;test&#x27;: None, &#x27;folder&#x27;: &#x27;D:\\\\Desenvolvimento\\\\web2py\\\\web2py&#x27;, &#x27;config&#x27;: &#x27;&#x27;, &#x27;minthreads&#x27;: None, &#x27;shell&#x27;: None, &#x27;run&#x27;: &#x27;&#x27;, &#x27;log_filename&#x27;: &#x27;httpserver.log&#x27;, &#x27;profiler_dir&#x27;: None, &#x27;args&#x27;: [&#x27;&#x27;], &#x27;socket_timeout&#x27;: 5, &#x27;ssl_ca_certificate&#x27;: None, &#x27;scheduler&#x27;: None, &#x27;interfaces&#x27;: None, &#x27;ssl_private_key&#x27;: &#x27;&#x27;, &#x27;gae&#x27;: None, &#x27;password&#x27;: &#x27;&lt;ask&gt;&#x27;, &#x27;request_queue_size&#x27;: 5, &#x27;ssl_certificate&#x27;: &#x27;&#x27;, &#x27;cronjob&#x27;: False, &#x27;numthreads&#x27;: None, &#x27;quiet&#x27;: False, &#x27;import_models&#x27;: False, &#x27;timeout&#x27;: 10, &#x27;plain&#x27;: False, &#x27;nobanner&#x27;: False}&gt;</div></td></tr><tr><td style="font-weight:bold;vertical-align:top;">db_sessions</td><td style="vertical-align:top;">:</td><td><div>set([])</div></td></tr><tr><td style="font-weight:bold;vertical-align:top;">debugging</td><td style="vertical-align:top;">:</td><td><div>False</div></td></tr><tr><td style="font-weight:bold;vertical-align:top;">gluon_parent</td><td style="vertical-align:top;">:</td><td><div>D:\\Desenvolvimento\\web2py\\web2py</div></td></tr><tr><td style="font-weight:bold;vertical-align:top;">is_jython</td><td style="vertical-align:top;">:</td><td><div>False</div></td></tr><tr><td style="font-weight:bold;vertical-align:top;">is_pypy</td><td style="vertical-align:top;">:</td><td><div>False</div></td></tr><tr><td style="font-weight:bold;vertical-align:top;">is_source</td><td style="vertical-align:top;">:</td><td><div>True</div></td></tr><tr><td style="font-weight:bold;vertical-align:top;">local_hosts</td><td style="vertical-align:top;">:</td><td><div><table><tr><td><div>192.168.71.1</div></td></tr><tr><td><div>fe80::4023:9900:3196:7ccb%5</div></td></tr><tr><td><div>fe80::6dc3:bcf7:daee:374c%7</div></td></tr><tr><td><div>::ffff:127.0.0.1</div></td></tr><tr><td><div>MOHAMED-DTIC</div></td></tr><tr><td><div>10.129.18.33</div></td></tr><tr><td><div>192.168.16.1</div></td></tr><tr><td><div>::1</div></td></tr><tr><td><div>MOHAMED-DTIC.unirio.br</div></td></tr><tr><td><div>127.0.0.1</div></td></tr><tr><td><div>fe80::4932:49bd:49c6:6ebe%3</div></td></tr></table></div></td></tr><tr><td style="font-weight:bold;vertical-align:top;">web2py_version</td><td style="vertical-align:top;">:</td><td><div>2.9.11-stable+timestamp.2014.09.15.23.35.11</div></td></tr></table></div></td></tr><tr><td style="font-weight:bold;vertical-align:top;">is_https</td><td style="vertical-align:top;">:</td><td><div>False</div></td></tr><tr><td style="font-weight:bold;vertical-align:top;">is_local</td><td style="vertical-align:top;">:</td><td><div>True</div></td></tr><tr><td style="font-weight:bold;vertical-align:top;">is_restful</td><td style="vertical-align:top;">:</td><td><div>False</div></td></tr><tr><td style="font-weight:bold;vertical-align:top;">is_sheduler</td><td style="vertical-align:top;">:</td><td><div>None</div></td></tr><tr><td style="font-weight:bold;vertical-align:top;">is_shell</td><td style="vertical-align:top;">:</td><td><div>None</div></td></tr><tr><td style="font-weight:bold;vertical-align:top;">now</td><td style="vertical-align:top;">:</td><td><div>datetime.datetime(2014, 12, 12, 16, 22, 56, 767000)</div></td></tr><tr><td style="font-weight:bold;vertical-align:top;">raw_args</td><td style="vertical-align:top;">:</td><td><div></div></td></tr><tr><td style="font-weight:bold;vertical-align:top;">raw_extension</td><td style="vertical-align:top;">:</td><td><div>None</div></td></tr><tr><td style="font-weight:bold;vertical-align:top;">url</td><td style="vertical-align:top;">:</td><td><div>/anestesia</div></td></tr><tr><td style="font-weight:bold;vertical-align:top;">utcnow</td><td style="vertical-align:top;">:</td><td><div>datetime.datetime(2014, 12, 12, 18, 22, 56, 767000)</div></td></tr><tr><td style="font-weight:bold;vertical-align:top;">uuid</td><td style="vertical-align:top;">:</td><td><div>anestesia/127.0.0.1.2014-12-12.16-22-56.3fc63156-22ce-4c78-ac27-782ba586737d</div></td></tr></table></div>'
tRp64
sS'frames'
p65
(lp66
(dp67
S'file'
p68
S'D:\\Desenvolvimento\\web2py\\web2py\\gluon\\main.py'
p69
sS'dump'
p70
(dp71
S'global create_missing_app_folders'
p72
S'<function create_missing_app_folders>'
p73
sS'request'
p74
S"<Storage {'_vars': None, 'function': 'index', 'c...nto\\\\web2py\\\\web2py\\\\applications\\\\anestesia\\\\'}>"
p75
ssS'lnum'
p76
I406
sS'lines'
p77
(dp78
I401
S''
sI402
S'                # ##################################################'
p79
sI403
S'                # build missing folders'
p80
sI404
S'                # ##################################################'
p81
sI405
S''
sI406
S'                create_missing_app_folders(request)'
p82
sI407
S''
sI408
S'                # ##################################################'
p83
sI409
S'                # get the GET and POST data'
p84
sI410
S'                # ##################################################'
p85
ssS'call'
p86
S'(environ={\'HTTP_ACCEPT\': \'text/html,application/xhtml+xml,application/xml;q=0.9,image/webp,*/*;q=0.8\', \'HTTP_ACCEPT_ENCODING\': \'gzip, deflate, sdch\', \'HTTP_ACCEPT_LANGUAGE\': \'pt-BR,pt;q=0.8,en-US;q=0.6,en;q=0.4\', \'HTTP_CONNECTION\': \'keep-alive\', \'HTTP_COOKIE\': \'session_data_examples="a632629af9fb55f9fa76a3571...me=127.0.0.1-681ee77d-187b-4fb2-9d07-b68d64a9a1e4\', \'HTTP_HOST\': \'127.0.0.1:8000\', \'HTTP_USER_AGENT\': \'Mozilla/5.0 (Windows NT 6.3; WOW64) AppleWebKit/...ML, like Gecko) Chrome/39.0.2171.65 Safari/537.36\', \'PATH_INFO\': \'/anestesia\', \'QUERY_STRING\': \'\', \'REMOTE_ADDR\': \'127.0.0.1\', ...}, responder=<function responder2>)'
p87
sS'func'
p88
S'wsgibase'
p89
sa(dp90
g68
S'D:\\Desenvolvimento\\web2py\\web2py\\gluon\\admin.py'
p91
sg70
(dp92
S'path'
p93
S"r'D:\\Desenvolvimento\\web2py\\web2py\\applications\\anestesia\\databases'"
p94
sS'global os'
p95
S"<module 'os' from 'C:\\Python27\\lib\\os.pyc'>"
p96
sS'os.mkdir'
p97
S'<built-in function mkdir>'
p98
ssg76
I457
sg77
(dp99
I449
S'def create_missing_app_folders(request):'
p100
sI450
S'    if not global_settings.web2py_runtime_gae:'
p101
sI451
S'        if request.folder not in global_settings.app_folders:'
p102
sI452
S"            for subfolder in ('models', 'views', 'controllers', 'databases',"
p103
sI453
S"                              'modules', 'cron', 'errors', 'sessions',"
p104
sI454
S"                              'languages', 'static', 'private', 'uploads'):"
p105
sI455
S'                path = os.path.join(request.folder, subfolder)'
p106
sI456
S'                if not os.path.exists(path):'
p107
sI457
S'                    os.mkdir(path)'
p108
sI458
S'            global_settings.app_folders.add(request.folder)'
p109
ssg86
S"(request=<Storage {'_vars': None, 'function': 'index', 'c...nto\\\\web2py\\\\web2py\\\\applications\\\\anestesia\\\\'}>)"
p110
sg88
S'create_missing_app_folders'
p111
sasS'pyver'
p112
S'Python 2.7: C:\\Python27\\python.exe (prefix: C:\\Python27)'
p113
sS'session'
p114
g63
(S's\x1a\x00\x00\x00<div><table></table></div>'
tRp115
sS'etype'
p116
S"<type 'exceptions.WindowsError'>"
p117
sS'date'
p118
S'Fri Dec 12 16:22:56 2014'
p119
sS'response'
p120
g63
(S's\xd1\x08\x00\x00<div><table><tr><td style="font-weight:bold;vertical-align:top;">body</td><td style="vertical-align:top;">:</td><td><div>&lt;cStringIO.StringO object at 0x03417220&gt;</div></td></tr><tr><td style="font-weight:bold;vertical-align:top;">cookies</td><td style="vertical-align:top;">:</td><td><div><table></table></div></td></tr><tr><td style="font-weight:bold;vertical-align:top;">delimiters</td><td style="vertical-align:top;">:</td><td><div><table><tr><td><div>{{</div></td></tr><tr><td><div>}}</div></td></tr></table></div></td></tr><tr><td style="font-weight:bold;vertical-align:top;">files</td><td style="vertical-align:top;">:</td><td><div><table></table></div></td></tr><tr><td style="font-weight:bold;vertical-align:top;">flash</td><td style="vertical-align:top;">:</td><td><div></div></td></tr><tr><td style="font-weight:bold;vertical-align:top;">form_label_separator</td><td style="vertical-align:top;">:</td><td><div>: </div></td></tr><tr><td style="font-weight:bold;vertical-align:top;">formstyle</td><td style="vertical-align:top;">:</td><td><div>table3cols</div></td></tr><tr><td style="font-weight:bold;vertical-align:top;">generic_patterns</td><td style="vertical-align:top;">:</td><td><div><table><tr><td><div>*</div></td></tr></table></div></td></tr><tr><td style="font-weight:bold;vertical-align:top;">headers</td><td style="vertical-align:top;">:</td><td><div><table><tr><td style="font-weight:bold;vertical-align:top;">X-Powered-By</td><td style="vertical-align:top;">:</td><td><div>web2py</div></td></tr></table></div></td></tr><tr><td style="font-weight:bold;vertical-align:top;">menu</td><td style="vertical-align:top;">:</td><td><div><table></table></div></td></tr><tr><td style="font-weight:bold;vertical-align:top;">meta</td><td style="vertical-align:top;">:</td><td><div><table></table></div></td></tr><tr><td style="font-weight:bold;vertical-align:top;">postprocessing</td><td style="vertical-align:top;">:</td><td><div><table></table></div></td></tr><tr><td style="font-weight:bold;vertical-align:top;">session_id</td><td style="vertical-align:top;">:</td><td><div>None</div></td></tr><tr><td style="font-weight:bold;vertical-align:top;">status</td><td style="vertical-align:top;">:</td><td><div>200</div></td></tr></table></div>'
tRp121
sS'locals'
p122
(dp123
S'path'
p124
S"r'D:\\Desenvolvimento\\web2py\\web2py\\applications\\anestesia\\databases'"
p125
sg62
S"<Storage {'_vars': None, 'function': 'index', 'c...nto\\\\web2py\\\\web2py\\\\applications\\\\anestesia\\\\'}>"
p126
sS'subfolder'
p127
S"'databases'"
p128
sssS'traceback'
p129
S'Traceback (most recent call last):\n  File "D:\\Desenvolvimento\\web2py\\web2py\\gluon\\main.py", line 406, in wsgibase\n    create_missing_app_folders(request)\n  File "D:\\Desenvolvimento\\web2py\\web2py\\gluon\\admin.py", line 457, in create_missing_app_folders\n    os.mkdir(path)\nWindowsError: [Error 183] N\xe3o \xe9 poss\xedvel criar um arquivo j\xe1 existente: \'D:\\\\Desenvolvimento\\\\web2py\\\\web2py\\\\applications\\\\anestesia\\\\databases\'\n'
p130
s.