(dp1
S'output'
p2
S"<type 'exceptions.IndexError'> string index out of range"
p3
sS'layer'
p4
S'D:\\Desenvolvimento\\web2py\\applications\\anestesia\\models\\db.py'
p5
sS'code'
p6
S"# -*- coding: utf-8 -*-\n\n#########################################################################\n## This scaffolding model makes your app work on Google App Engine too\n## File is released under public domain and you can use without limitations\n#########################################################################\n\n## if SSL/HTTPS is properly configured and you want all HTTP requests to\n## be redirected to HTTPS, uncomment the line below:\n# request.requires_https()\n\nif not request.env.web2py_runtime_gae:\n    ## if NOT running on Google App Engine use SQLite or other DB\n    #db = DAL('sqlite://storage.sqlite',pool_size=1,check_reserved=['all'])\n    db = DAL('postgres://postgres:devdtic2@teste.sistemas.unirio.br:5432/anestesia')\nelse:\n    ## connect to Google BigTable (optional 'google:datastore://namespace')\n    db = DAL('google:datastore+ndb')\n    ## store sessions and tickets there\n    session.connect(request, response, db=db)\n    ## or store session in Memcache, Redis, etc.\n    ## from gluon.contrib.memdb import MEMDB\n    ## from google.appengine.api.memcache import Client\n    ## session.connect(request, response, db = MEMDB(Client()))\n\n## by default give a view/generic.extension to all actions from localhost\n## none otherwise. a pattern can be 'controller/function.extension'\nresponse.generic_patterns = ['*'] if request.is_local else []\n\n## (optional) optimize handling of static files\n# response.optimize_css = 'concat,minify,inline'\n# response.optimize_js = 'concat,minify,inline'\n## (optional) static assets folder versioning\n# response.static_version = '0.0.0'\n#########################################################################\n## Here is sample code if you need for\n## - email capabilities\n## - authentication (registration, login, logout, ... )\n## - authorization (role based authorization)\n## - services (xml, csv, json, xmlrpc, jsonrpc, amf, rss)\n## - old style crud actions\n## (more options discussed in gluon/tools.py)\n#########################################################################\n\nfrom gluon.tools import Auth, Service, PluginManager\n\nauth = Auth(db)\nservice = Service()\nplugins = PluginManager()\n\n## create all tables needed by auth if not custom tables\nauth.define_tables(username=False, signature=False)\n\n## configure email\nmail = auth.settings.mailer\nmail.settings.server = 'logging' if request.is_local else 'smtp.gmail.com:587'\nmail.settings.sender = 'you@gmail.com'\nmail.settings.login = 'username:password'\n\n## configure auth policy\nauth.settings.registration_requires_verification = False\nauth.settings.registration_requires_approval = False\nauth.settings.reset_password_requires_verification = True\n\n## if you need to use OpenID, Facebook, MySpace, Twitter, Linkedin, etc.\n## register with janrain.com, write your domain:api_key in private/janrain.key\nfrom gluon.contrib.login_methods.janrain_account import use_janrain\nuse_janrain(auth, filename='private/janrain.key')\n\n#########################################################################\n## Define your tables below (or better in another model file) for example\n##\n## >>> db.define_table('mytable',Field('myfield','string'))\n##\n## Fields can be 'string','text','password','integer','double','boolean'\n##       'date','time','datetime','blob','upload', 'reference TABLENAME'\n## There is an implicit 'id integer autoincrement' field\n## Consult manual for more options, validators, etc.\n##\n## More API examples for controllers:\n##\n## >>> db.mytable.insert(myfield='value')\n## >>> rows=db(db.mytable.myfield=='value').select(db.mytable.ALL)\n## >>> for row in rows: print row.id, row.myfield\n#########################################################################\n\n## after defining tables, uncomment below to enable auditing\n# auth.enable_record_versioning(db)\n\ndb.define_table('paciente',\n                    Field('nr_registro', 'integer'),\n                    Field('matricula_hugg', 'integer'),\n                    Field('nome', 'string'),\n                    Field('data', 'date'),\n                    Field('ficha_nr', 'integer'),\n                    Field('enfermaria', 'string'),\n                    Field('leito', 'string'),\n                    Field('idade', 'integer'),\n                    Field('asa'),\n                    Field('clinica', 'string'),\n                    Field('so'),\n                    Field('dados_cadastrais_e', 'boolean'),\n                    Field('dados_cadastrais_sexo', 'string'),\n                    Field('altura', 'double'),\n                    Field('peso', 'double'),\n                    Field('temperatura', 'double'),\n                    Field('pulso', 'integer'),\n                    Field('respiracao', 'integer'),\n                    Field('pa'),\n                    Field('diagnostico', 'string'),\n                    Field('cirurgia', 'string'),\n                    Field('tabagismo', 'boolean'),\n                    Field('asma', 'boolean'),\n                    Field('tosse', 'boolean'),\n                    Field('dpoc', 'boolean'),\n                    Field('bk_insuficiencia', 'boolean'),\n                    Field('derrame_pleural', 'boolean'),\n                    Field('circunferencia_toraxica', 'boolean'),\n                    Field('has', 'boolean'),\n                    Field('icc', 'boolean'),\n                    Field('anglina', 'boolean'),\n                    Field('iam', 'boolean'),\n                    Field('valvulopalla', 'boolean'),\n                    Field('marcapasso', 'boolean'),\n                    Field('arritmias', 'boolean'),\n                    Field('insuf_venosa', 'boolean'),\n                    Field('diabetes', 'boolean'),\n                    Field('hipertireoidismo', 'boolean'),\n                    Field('endocrinopalias', 'boolean'),\n                    Field('cirrose', 'boolean'),\n                    Field('hepatite_a', 'boolean'),\n                    Field('hepatite_b', 'boolean'),\n                    Field('hepatite_c', 'boolean'),\n                    Field('elilismo', 'boolean'),\n                    Field('hiv', 'boolean'),\n                    Field('infeccoes_oportunistas', 'boolean'),\n                    Field('insuf_renal', 'boolean'),\n                    Field('hemodialise_peritoneal', 'boolean'),\n                    Field('disturbios_hemorragicos', 'boolean'),\n                    Field('avc_previo', 'boolean'),\n                    Field('doencas_psiquiatricas', 'boolean'),\n                    Field('doencas_neuromuscular', 'boolean'),\n                    Field('doencas_reumaticas', 'boolean'),\n                    Field('alteracao_neurologica', 'boolean'),\n                    Field('hemotransfusao_previa', 'boolean'),\n                    Field('obs_gerais', 'text'),\n                    Field('medicamentos_em_uso', 'string'),\n                    Field('alergias', 'string'),\n                    Field('cirurgias_previas', 'boolean'),\n                    Field('mallapati', 'string'),\n                    Field('abertura_boca', 'boolean'),\n                    Field('dentes_falhos', 'boolean'),\n                    Field('protese', 'boolean'),\n                    Field('macroglossia', 'boolean'),\n                    Field('distancia_esterno_mento', 'string'),\n                    Field('pescoco_curto_longo', 'string'),\n                    Field('mobilidade_cervical', 'string'),\n                    Field('massa_cervical', 'boolean'),\n                    Field('desvio_traqueia', 'boolean'),\n                    Field('distancia_mento_hiloide', 'boolean'),\n                    Field('circunferencia_cervical', 'boolean'),\n                    Field('', 'boolean'),)\n\ndb.paciente.nome.requires = IS_NOT_EMPTY(error_message='O Nome n\xc3\xa3o pode estar sem preenchimento.')\ndb.paciente.matricula_hugg.requires = IS_NOT_EMPTY()"
p7
sS'snapshot'
p8
(dp9
S'exception'
p10
(dp11
S'__hash__'
p12
S"<method-wrapper '__hash__' of exceptions.IndexError object>"
p13
sS'__setattr__'
p14
S"<method-wrapper '__setattr__' of exceptions.IndexError object>"
p15
sS'__reduce_ex__'
p16
S'<built-in method __reduce_ex__ of exceptions.IndexError object>'
p17
sS'__getslice__'
p18
S"<method-wrapper '__getslice__' of exceptions.IndexError object>"
p19
sS'__getitem__'
p20
S"<method-wrapper '__getitem__' of exceptions.IndexError object>"
p21
sS'__setstate__'
p22
S'<built-in method __setstate__ of exceptions.IndexError object>'
p23
sS'__reduce__'
p24
S'<built-in method __reduce__ of exceptions.IndexError object>'
p25
sS'__str__'
p26
S"<method-wrapper '__str__' of exceptions.IndexError object>"
p27
sS'__format__'
p28
S'<built-in method __format__ of exceptions.IndexError object>'
p29
sS'__getattribute__'
p30
S"<method-wrapper '__getattribute__' of exceptions.IndexError object>"
p31
sS'__class__'
p32
S"<type 'exceptions.IndexError'>"
p33
sS'__unicode__'
p34
S'<built-in method __unicode__ of exceptions.IndexError object>'
p35
sS'__delattr__'
p36
S"<method-wrapper '__delattr__' of exceptions.IndexError object>"
p37
sS'__subclasshook__'
p38
S'<built-in method __subclasshook__ of type object>'
p39
sS'__repr__'
p40
S"<method-wrapper '__repr__' of exceptions.IndexError object>"
p41
sS'args'
p42
S"('string index out of range',)"
p43
sS'__dict__'
p44
S'{}'
p45
sS'__sizeof__'
p46
S'<built-in method __sizeof__ of exceptions.IndexError object>'
p47
sS'__doc__'
p48
S"'Sequence index out of range.'"
p49
sS'__init__'
p50
S"<method-wrapper '__init__' of exceptions.IndexError object>"
p51
sS'__new__'
p52
S'<built-in method __new__ of type object>'
p53
ssS'evalue'
p54
S'string index out of range'
p55
sS'request'
p56
cgluon.html
XML_unpickle
p57
(S's\xa5\xae\x00\x00<div><table><tr><td style="font-weight:bold;vertical-align:top;">ajax</td><td style="vertical-align:top;">:</td><td><div>False</div></td></tr><tr><td style="font-weight:bold;vertical-align:top;">application</td><td style="vertical-align:top;">:</td><td><div>anestesia</div></td></tr><tr><td style="font-weight:bold;vertical-align:top;">args</td><td style="vertical-align:top;">:</td><td><div><table></table></div></td></tr><tr><td style="font-weight:bold;vertical-align:top;">cid</td><td style="vertical-align:top;">:</td><td><div>None</div></td></tr><tr><td style="font-weight:bold;vertical-align:top;">client</td><td style="vertical-align:top;">:</td><td><div>127.0.0.1</div></td></tr><tr><td style="font-weight:bold;vertical-align:top;">controller</td><td style="vertical-align:top;">:</td><td><div>pagina_incluir</div></td></tr><tr><td style="font-weight:bold;vertical-align:top;">cookies</td><td style="vertical-align:top;">:</td><td><div><table><tr><td style="font-weight:bold;vertical-align:top;">session_data_examples</td><td style="vertical-align:top;">:</td><td><div>a632629af9fb55f9fa76a3571908672d:sN1Elcivdjn9AEoZt6p9CH1OYrd76hTOUSbiLoxyR_yP3VUKl1SZjORiT_6q2TsxL5KRFbKY7XlUqLQ8qUQ9fdKSc6SQwqz_hs_xRWB1svIa4GO-qZqNh0xkugb0opWHtCh3BhX5xMfeMOBP2L6lUMmh1yUcuvaOH6visCdSEsDn4ByzGUN5ylEsNFejbxELSaAOwlYRb4roFr9TXARwSQ0S6u7zw0eItm2g8Z9bm7H55aH4W870LM4wPH3cOGqzJmQwzbOivkXCtr0z5-WQ_HDnS1WI3ZTDruG4FQa_MF9avDDeu6JZ8vLf9CeyaUOT<table><tr><td style="font-weight:bold;vertical-align:top;">comment</td><td style="vertical-align:top;">:</td><td><div></div></td></tr><tr><td style="font-weight:bold;vertical-align:top;">domain</td><td style="vertical-align:top;">:</td><td><div></div></td></tr><tr><td style="font-weight:bold;vertical-align:top;">expires</td><td style="vertical-align:top;">:</td><td><div></div></td></tr><tr><td style="font-weight:bold;vertical-align:top;">httponly</td><td style="vertical-align:top;">:</td><td><div></div></td></tr><tr><td style="font-weight:bold;vertical-align:top;">max-age</td><td style="vertical-align:top;">:</td><td><div></div></td></tr><tr><td style="font-weight:bold;vertical-align:top;">path</td><td style="vertical-align:top;">:</td><td><div></div></td></tr><tr><td style="font-weight:bold;vertical-align:top;">secure</td><td style="vertical-align:top;">:</td><td><div></div></td></tr><tr><td style="font-weight:bold;vertical-align:top;">version</td><td style="vertical-align:top;">:</td><td><div></div></td></tr></table></div></td></tr><tr><td style="font-weight:bold;vertical-align:top;">session_id_admin</td><td style="vertical-align:top;">:</td><td><div>127.0.0.1-8821195d-d852-402b-9210-e24638d99d35<table><tr><td style="font-weight:bold;vertical-align:top;">comment</td><td style="vertical-align:top;">:</td><td><div></div></td></tr><tr><td style="font-weight:bold;vertical-align:top;">domain</td><td style="vertical-align:top;">:</td><td><div></div></td></tr><tr><td style="font-weight:bold;vertical-align:top;">expires</td><td style="vertical-align:top;">:</td><td><div></div></td></tr><tr><td style="font-weight:bold;vertical-align:top;">httponly</td><td style="vertical-align:top;">:</td><td><div></div></td></tr><tr><td style="font-weight:bold;vertical-align:top;">max-age</td><td style="vertical-align:top;">:</td><td><div></div></td></tr><tr><td style="font-weight:bold;vertical-align:top;">path</td><td style="vertical-align:top;">:</td><td><div></div></td></tr><tr><td style="font-weight:bold;vertical-align:top;">secure</td><td style="vertical-align:top;">:</td><td><div></div></td></tr><tr><td style="font-weight:bold;vertical-align:top;">version</td><td style="vertical-align:top;">:</td><td><div></div></td></tr></table></div></td></tr><tr><td style="font-weight:bold;vertical-align:top;">session_id_anestesia</td><td style="vertical-align:top;">:</td><td><div>127.0.0.1-f3e79e0a-00f4-4121-a50b-cf8a4b1af40b<table><tr><td style="font-weight:bold;vertical-align:top;">comment</td><td style="vertical-align:top;">:</td><td><div></div></td></tr><tr><td style="font-weight:bold;vertical-align:top;">domain</td><td style="vertical-align:top;">:</td><td><div></div></td></tr><tr><td style="font-weight:bold;vertical-align:top;">expires</td><td style="vertical-align:top;">:</td><td><div></div></td></tr><tr><td style="font-weight:bold;vertical-align:top;">httponly</td><td style="vertical-align:top;">:</td><td><div></div></td></tr><tr><td style="font-weight:bold;vertical-align:top;">max-age</td><td style="vertical-align:top;">:</td><td><div></div></td></tr><tr><td style="font-weight:bold;vertical-align:top;">path</td><td style="vertical-align:top;">:</td><td><div></div></td></tr><tr><td style="font-weight:bold;vertical-align:top;">secure</td><td style="vertical-align:top;">:</td><td><div></div></td></tr><tr><td style="font-weight:bold;vertical-align:top;">version</td><td style="vertical-align:top;">:</td><td><div></div></td></tr></table></div></td></tr><tr><td style="font-weight:bold;vertical-align:top;">session_id_controle</td><td style="vertical-align:top;">:</td><td><div>127.0.0.1-8d5cd6e4-1136-46a7-8777-e2dc8b975cc3<table><tr><td style="font-weight:bold;vertical-align:top;">comment</td><td style="vertical-align:top;">:</td><td><div></div></td></tr><tr><td style="font-weight:bold;vertical-align:top;">domain</td><td style="vertical-align:top;">:</td><td><div></div></td></tr><tr><td style="font-weight:bold;vertical-align:top;">expires</td><td style="vertical-align:top;">:</td><td><div></div></td></tr><tr><td style="font-weight:bold;vertical-align:top;">httponly</td><td style="vertical-align:top;">:</td><td><div></div></td></tr><tr><td style="font-weight:bold;vertical-align:top;">max-age</td><td style="vertical-align:top;">:</td><td><div></div></td></tr><tr><td style="font-weight:bold;vertical-align:top;">path</td><td style="vertical-align:top;">:</td><td><div></div></td></tr><tr><td style="font-weight:bold;vertical-align:top;">secure</td><td style="vertical-align:top;">:</td><td><div></div></td></tr><tr><td style="font-weight:bold;vertical-align:top;">version</td><td style="vertical-align:top;">:</td><td><div></div></td></tr></table></div></td></tr><tr><td style="font-weight:bold;vertical-align:top;">session_id_examples</td><td style="vertical-align:top;">:</td><td><div>True<table><tr><td style="font-weight:bold;vertical-align:top;">comment</td><td style="vertical-align:top;">:</td><td><div></div></td></tr><tr><td style="font-weight:bold;vertical-align:top;">domain</td><td style="vertical-align:top;">:</td><td><div></div></td></tr><tr><td style="font-weight:bold;vertical-align:top;">expires</td><td style="vertical-align:top;">:</td><td><div></div></td></tr><tr><td style="font-weight:bold;vertical-align:top;">httponly</td><td style="vertical-align:top;">:</td><td><div></div></td></tr><tr><td style="font-weight:bold;vertical-align:top;">max-age</td><td style="vertical-align:top;">:</td><td><div></div></td></tr><tr><td style="font-weight:bold;vertical-align:top;">path</td><td style="vertical-align:top;">:</td><td><div></div></td></tr><tr><td style="font-weight:bold;vertical-align:top;">secure</td><td style="vertical-align:top;">:</td><td><div></div></td></tr><tr><td style="font-weight:bold;vertical-align:top;">version</td><td style="vertical-align:top;">:</td><td><div></div></td></tr></table></div></td></tr><tr><td style="font-weight:bold;vertical-align:top;">session_id_formulario</td><td style="vertical-align:top;">:</td><td><div>127.0.0.1-ad3203e2-ca0b-480a-bc23-84d358ff6197<table><tr><td style="font-weight:bold;vertical-align:top;">comment</td><td style="vertical-align:top;">:</td><td><div></div></td></tr><tr><td style="font-weight:bold;vertical-align:top;">domain</td><td style="vertical-align:top;">:</td><td><div></div></td></tr><tr><td style="font-weight:bold;vertical-align:top;">expires</td><td style="vertical-align:top;">:</td><td><div></div></td></tr><tr><td style="font-weight:bold;vertical-align:top;">httponly</td><td style="vertical-align:top;">:</td><td><div></div></td></tr><tr><td style="font-weight:bold;vertical-align:top;">max-age</td><td style="vertical-align:top;">:</td><td><div></div></td></tr><tr><td style="font-weight:bold;vertical-align:top;">path</td><td style="vertical-align:top;">:</td><td><div></div></td></tr><tr><td style="font-weight:bold;vertical-align:top;">secure</td><td style="vertical-align:top;">:</td><td><div></div></td></tr><tr><td style="font-weight:bold;vertical-align:top;">version</td><td style="vertical-align:top;">:</td><td><div></div></td></tr></table></div></td></tr><tr><td style="font-weight:bold;vertical-align:top;">session_id_myapp</td><td style="vertical-align:top;">:</td><td><div>127.0.0.1-dd8a077d-66b1-4b2d-808d-5213f9618b8a<table><tr><td style="font-weight:bold;vertical-align:top;">comment</td><td style="vertical-align:top;">:</td><td><div></div></td></tr><tr><td style="font-weight:bold;vertical-align:top;">domain</td><td style="vertical-align:top;">:</td><td><div></div></td></tr><tr><td style="font-weight:bold;vertical-align:top;">expires</td><td style="vertical-align:top;">:</td><td><div></div></td></tr><tr><td style="font-weight:bold;vertical-align:top;">httponly</td><td style="vertical-align:top;">:</td><td><div></div></td></tr><tr><td style="font-weight:bold;vertical-align:top;">max-age</td><td style="vertical-align:top;">:</td><td><div></div></td></tr><tr><td style="font-weight:bold;vertical-align:top;">path</td><td style="vertical-align:top;">:</td><td><div></div></td></tr><tr><td style="font-weight:bold;vertical-align:top;">secure</td><td style="vertical-align:top;">:</td><td><div></div></td></tr><tr><td style="font-weight:bold;vertical-align:top;">version</td><td style="vertical-align:top;">:</td><td><div></div></td></tr></table></div></td></tr><tr><td style="font-weight:bold;vertical-align:top;">session_id_myappzero</td><td style="vertical-align:top;">:</td><td><div>127.0.0.1-41ad397c-50c5-4858-9e39-6c5ae8bdc5a1<table><tr><td style="font-weight:bold;vertical-align:top;">comment</td><td style="vertical-align:top;">:</td><td><div></div></td></tr><tr><td style="font-weight:bold;vertical-align:top;">domain</td><td style="vertical-align:top;">:</td><td><div></div></td></tr><tr><td style="font-weight:bold;vertical-align:top;">expires</td><td style="vertical-align:top;">:</td><td><div></div></td></tr><tr><td style="font-weight:bold;vertical-align:top;">httponly</td><td style="vertical-align:top;">:</td><td><div></div></td></tr><tr><td style="font-weight:bold;vertical-align:top;">max-age</td><td style="vertical-align:top;">:</td><td><div></div></td></tr><tr><td style="font-weight:bold;vertical-align:top;">path</td><td style="vertical-align:top;">:</td><td><div></div></td></tr><tr><td style="font-weight:bold;vertical-align:top;">secure</td><td style="vertical-align:top;">:</td><td><div></div></td></tr><tr><td style="font-weight:bold;vertical-align:top;">version</td><td style="vertical-align:top;">:</td><td><div></div></td></tr></table></div></td></tr><tr><td style="font-weight:bold;vertical-align:top;">session_id_voto</td><td style="vertical-align:top;">:</td><td><div>127.0.0.1-8786c067-43b4-459a-8441-749730cd2042<table><tr><td style="font-weight:bold;vertical-align:top;">comment</td><td style="vertical-align:top;">:</td><td><div></div></td></tr><tr><td style="font-weight:bold;vertical-align:top;">domain</td><td style="vertical-align:top;">:</td><td><div></div></td></tr><tr><td style="font-weight:bold;vertical-align:top;">expires</td><td style="vertical-align:top;">:</td><td><div></div></td></tr><tr><td style="font-weight:bold;vertical-align:top;">httponly</td><td style="vertical-align:top;">:</td><td><div></div></td></tr><tr><td style="font-weight:bold;vertical-align:top;">max-age</td><td style="vertical-align:top;">:</td><td><div></div></td></tr><tr><td style="font-weight:bold;vertical-align:top;">path</td><td style="vertical-align:top;">:</td><td><div></div></td></tr><tr><td style="font-weight:bold;vertical-align:top;">secure</td><td style="vertical-align:top;">:</td><td><div></div></td></tr><tr><td style="font-weight:bold;vertical-align:top;">version</td><td style="vertical-align:top;">:</td><td><div></div></td></tr></table></div></td></tr><tr><td style="font-weight:bold;vertical-align:top;">session_id_welcome</td><td style="vertical-align:top;">:</td><td><div>127.0.0.1-681ee77d-187b-4fb2-9d07-b68d64a9a1e4<table><tr><td style="font-weight:bold;vertical-align:top;">comment</td><td style="vertical-align:top;">:</td><td><div></div></td></tr><tr><td style="font-weight:bold;vertical-align:top;">domain</td><td style="vertical-align:top;">:</td><td><div></div></td></tr><tr><td style="font-weight:bold;vertical-align:top;">expires</td><td style="vertical-align:top;">:</td><td><div></div></td></tr><tr><td style="font-weight:bold;vertical-align:top;">httponly</td><td style="vertical-align:top;">:</td><td><div></div></td></tr><tr><td style="font-weight:bold;vertical-align:top;">max-age</td><td style="vertical-align:top;">:</td><td><div></div></td></tr><tr><td style="font-weight:bold;vertical-align:top;">path</td><td style="vertical-align:top;">:</td><td><div></div></td></tr><tr><td style="font-weight:bold;vertical-align:top;">secure</td><td style="vertical-align:top;">:</td><td><div></div></td></tr><tr><td style="font-weight:bold;vertical-align:top;">version</td><td style="vertical-align:top;">:</td><td><div></div></td></tr></table></div></td></tr></table></div></td></tr><tr><td style="font-weight:bold;vertical-align:top;">env</td><td style="vertical-align:top;">:</td><td><div><table><tr><td style="font-weight:bold;vertical-align:top;">HTTP_ACCEPT</td><td style="vertical-align:top;">:</td><td><div>text/html,application/xhtml+xml,application/xml;q=0.9,image/webp,*/*;q=0.8</div></td></tr><tr><td style="font-weight:bold;vertical-align:top;">HTTP_ACCEPT_ENCODING</td><td style="vertical-align:top;">:</td><td><div>gzip, deflate, sdch</div></td></tr><tr><td style="font-weight:bold;vertical-align:top;">HTTP_ACCEPT_LANGUAGE</td><td style="vertical-align:top;">:</td><td><div>pt-BR,pt;q=0.8,en-US;q=0.6,en;q=0.4</div></td></tr><tr><td style="font-weight:bold;vertical-align:top;">HTTP_CACHE_CONTROL</td><td style="vertical-align:top;">:</td><td><div>max-age=0</div></td></tr><tr><td style="font-weight:bold;vertical-align:top;">HTTP_CONNECTION</td><td style="vertical-align:top;">:</td><td><div>keep-alive</div></td></tr><tr><td style="font-weight:bold;vertical-align:top;">HTTP_COOKIE</td><td style="vertical-align:top;">:</td><td><div>session_data_examples=&quot;a632629af9fb55f9fa76a3571908672d:sN1Elcivdjn9AEoZt6p9CH1OYrd76hTOUSbiLoxyR_yP3VUKl1SZjORiT_6q2TsxL5KRFbKY7XlUqLQ8qUQ9fdKSc6SQwqz_hs_xRWB1svIa4GO-qZqNh0xkugb0opWHtCh3BhX5xMfeMOBP2L6lUMmh1yUcuvaOH6visCdSEsDn4ByzGUN5ylEsNFejbxELSaAOwlYRb4roFr9TXARwSQ0S6u7zw0eItm2g8Z9bm7H55aH4W870LM4wPH3cOGqzJmQwzbOivkXCtr0z5-WQ_HDnS1WI3ZTDruG4FQa_MF9avDDeu6JZ8vLf9CeyaUOT&quot;; session_id_examples=True; session_id_myappzero=127.0.0.1-41ad397c-50c5-4858-9e39-6c5ae8bdc5a1; session_id_voto=127.0.0.1-8786c067-43b4-459a-8441-749730cd2042; session_id_myapp=127.0.0.1-dd8a077d-66b1-4b2d-808d-5213f9618b8a; session_id_formulario=127.0.0.1-ad3203e2-ca0b-480a-bc23-84d358ff6197; session_id_controle=127.0.0.1-8d5cd6e4-1136-46a7-8777-e2dc8b975cc3; session_id_welcome=127.0.0.1-681ee77d-187b-4fb2-9d07-b68d64a9a1e4; session_id_admin=127.0.0.1-8821195d-d852-402b-9210-e24638d99d35; session_id_anestesia=127.0.0.1-f3e79e0a-00f4-4121-a50b-cf8a4b1af40b</div></td></tr><tr><td style="font-weight:bold;vertical-align:top;">HTTP_HOST</td><td style="vertical-align:top;">:</td><td><div>127.0.0.1:8000</div></td></tr><tr><td style="font-weight:bold;vertical-align:top;">HTTP_REFERER</td><td style="vertical-align:top;">:</td><td><div>http://127.0.0.1:8000/anestesia/pagina_incluir?nome=Nail+Mohamed+Saber+Abdo+Bekhit&amp;data=15%2F11%2F1971&amp;dados_cadastrais_e=nao&amp;dados_cadastrais_sexo=M&amp;tabagismo=nao&amp;asma=nao&amp;tosse=nao&amp;dpoc=nao&amp;bk=nao&amp;der_pleural=nao&amp;cir_tor=nao&amp;has=nao&amp;icc=nao&amp;anglina=nao&amp;iam=nao&amp;valvulopalla=nao&amp;marcapasso=nao&amp;arritmias=nao&amp;insuf_venosa=nao&amp;diabetes=nao&amp;hipertireoidismo=nao&amp;endocrinopalias=nao&amp;cirrose=nao&amp;hepa=nao&amp;hepb=nao&amp;hepc=nao&amp;elilismo=nao&amp;hiv=nao&amp;inf_opor=nao&amp;insuf_renal=nao&amp;hemod=nao&amp;dist_hemo=nao&amp;avc_previo=nao&amp;d_psi=nao&amp;d_neuro_musc=nao&amp;d_reuma=nao&amp;alt_neuro=nao&amp;hemo_prev=nao&amp;aber_boca=nao&amp;dentes_falhos=nao&amp;protese=nao&amp;macroglossia=nao&amp;massa_cervical=nao&amp;desvio_traqueia=nao&amp;cardioscopio=nao&amp;ox_digital=nao&amp;pni=nao&amp;painv=nao&amp;capnografo=nao&amp;an_gases=nao&amp;outros_monitorizacao=&amp;tec_geral=nao&amp;plexo=nao&amp;neuroeixo=nao&amp;combinada=nao&amp;sedacao=nao&amp;sub_mascara=nao&amp;can_naso=nao&amp;can_orofaringea=nao&amp;masc_laringea=nao&amp;int_oro_traqueal=nao&amp;tipo_naso=nao&amp;tipo_aramado=nao&amp;dupla_luz=nao&amp;balao=nao&amp;laringoscopia=nao&amp;broncofibroscopia=nao&amp;est_luminoso=nao&amp;videolaringoscopia=nao&amp;_formname=default</div></td></tr><tr><td style="font-weight:bold;vertical-align:top;">HTTP_USER_AGENT</td><td style="vertical-align:top;">:</td><td><div>Mozilla/5.0 (Windows NT 6.3; WOW64) AppleWebKit/537.36 (KHTML, like Gecko) Chrome/39.0.2171.95 Safari/537.36</div></td></tr><tr><td style="font-weight:bold;vertical-align:top;">PATH_INFO</td><td style="vertical-align:top;">:</td><td><div>/anestesia/pagina_incluir</div></td></tr><tr><td style="font-weight:bold;vertical-align:top;">QUERY_STRING</td><td style="vertical-align:top;">:</td><td><div>nr_registro=123&amp;nome=Nail+Mohamed+Saber+Abdo+Bekhit&amp;data=15%2F11%2F1971&amp;ficha_nr=123&amp;enfermaria=&amp;leito=&amp;idade=&amp;asa=&amp;clinica=&amp;so=&amp;dados_cadastrais_e=nao&amp;dados_cadastrais_sexo=M&amp;altura=&amp;peso=&amp;temperatura=&amp;pulso=&amp;respiracao=&amp;pa=&amp;diagnostico=&amp;cirurgia=&amp;tabagismo=nao&amp;asma=nao&amp;tosse=nao&amp;dpoc=nao&amp;bk_insuficiencia=nao&amp;der_pleural=nao&amp;circunferencia_toraxica=nao&amp;has=nao&amp;icc=nao&amp;anglina=nao&amp;iam=nao&amp;valvulopalla=nao&amp;marcapasso=nao&amp;arritmias=nao&amp;insuf_venosa=nao&amp;diabetes=nao&amp;hipertireoidismo=nao&amp;endocrinopalias=nao&amp;cirrose=nao&amp;hepatite_a=nao&amp;hepatite_b=nao&amp;hepatite_c=nao&amp;elilismo=nao&amp;hiv=nao&amp;infeccoes_oportunistas=nao&amp;insuf_renal=nao&amp;hemodialise_peritoneal=nao&amp;disturbios_hemorragicos=nao&amp;avc_previo=nao&amp;doencas_psiquiatrica=nao&amp;doenca_neuromuscular=nao&amp;doenca_reumatica=nao&amp;alteracao_neurologica=nao&amp;hemotransfusao_previa=nao&amp;txt_med_em_uso=&amp;txt_alergias=&amp;txt_cir_previas=&amp;abertura_boca=nao&amp;dentes_falhos=nao&amp;protese=nao&amp;macroglossia=nao&amp;distancia_esterno_mento=&amp;pescoco_curto_longo=&amp;pescoco_mobilidade_cervical=&amp;massa_cervical=nao&amp;desvio_traqueia=nao&amp;distancia_mento_hiloide=&amp;circunferencia_cervical=&amp;chk_atencao=dificuldade_intubacao&amp;chk_atencao=via_aerea_dificil&amp;chk_atencao=historia_de_anafilaxia&amp;chk_atencao=estomago_cheio&amp;chk_atencao=corticoide&amp;chk_atencao=endocardite_bacteriana&amp;hb=&amp;ht=&amp;hm=&amp;plaquetas=&amp;glicose=&amp;u=&amp;cr=&amp;na%2B=&amp;k%2B=&amp;txt_duracao_procedimento=&amp;txt_duracao_procedimento=&amp;cardioscopio=nao&amp;ox_digital=nao&amp;pni=nao&amp;painv=nao&amp;capnografo=nao&amp;an_gases=nao&amp;outros_monitorizacao=&amp;tec_geral=nao&amp;plexo=nao&amp;bloqueio_neuroeixo=nao&amp;combinada=nao&amp;sedacao=nao&amp;sub_mascara=nao&amp;canula_naso=nao&amp;canula_orofaringea=nao&amp;mascara_laringea=nao&amp;nr_mascara_laringea=&amp;intubacao_oro_traqueal=nao&amp;diametro_tubo=&amp;tipo_naso=nao&amp;tipo_aramado=nao&amp;dupla_luz=nao&amp;balao=nao&amp;laringoscopia=nao&amp;broncofibroscopia=nao&amp;estilete_luminoso=nao&amp;videolaringoscopia=nao&amp;cirurgia=&amp;anestesia=&amp;cirurgiap=&amp;_formname=default</div></td></tr><tr><td style="font-weight:bold;vertical-align:top;">REMOTE_ADDR</td><td style="vertical-align:top;">:</td><td><div>127.0.0.1</div></td></tr><tr><td style="font-weight:bold;vertical-align:top;">REMOTE_PORT</td><td style="vertical-align:top;">:</td><td><div>57706</div></td></tr><tr><td style="font-weight:bold;vertical-align:top;">REQUEST_METHOD</td><td style="vertical-align:top;">:</td><td><div>GET</div></td></tr><tr><td style="font-weight:bold;vertical-align:top;">SCRIPT_NAME</td><td style="vertical-align:top;">:</td><td><div></div></td></tr><tr><td style="font-weight:bold;vertical-align:top;">SERVER_NAME</td><td style="vertical-align:top;">:</td><td><div>MOHAMED-DTIC</div></td></tr><tr><td style="font-weight:bold;vertical-align:top;">SERVER_PORT</td><td style="vertical-align:top;">:</td><td><div>8000</div></td></tr><tr><td style="font-weight:bold;vertical-align:top;">SERVER_PROTOCOL</td><td style="vertical-align:top;">:</td><td><div>HTTP/1.1</div></td></tr><tr><td style="font-weight:bold;vertical-align:top;">SERVER_SOFTWARE</td><td style="vertical-align:top;">:</td><td><div>Rocket 1.2.6</div></td></tr><tr><td style="font-weight:bold;vertical-align:top;">app_folders</td><td style="vertical-align:top;">:</td><td><div>set([&#x27;D:\\\\Desenvolvimento\\\\web2py\\\\applications\\\\admin\\\\&#x27;, &#x27;D:\\\\Desenvolvimento\\\\web2py\\\\applications\\\\anestesia\\\\&#x27;, &#x27;D:\\\\Desenvolvimento\\\\web2py\\\\applications\\\\welcome\\\\&#x27;])</div></td></tr><tr><td style="font-weight:bold;vertical-align:top;">applications_parent</td><td style="vertical-align:top;">:</td><td><div>D:\\Desenvolvimento\\web2py</div></td></tr><tr><td style="font-weight:bold;vertical-align:top;">cmd_args</td><td style="vertical-align:top;">:</td><td><div><table></table></div></td></tr><tr><td style="font-weight:bold;vertical-align:top;">cmd_options</td><td style="vertical-align:top;">:</td><td><div>&lt;Values at 0x2e9a7b0: {&#x27;verbose&#x27;: False, &#x27;ip&#x27;: &#x27;127.0.0.1&#x27;, &#x27;debuglevel&#x27;: 30, &#x27;with_scheduler&#x27;: False, &#x27;ips&#x27;: [&#x27;192.168.71.1&#x27;, &#x27;fe80::4023:9900:3196:7ccb%5&#x27;, &#x27;10.129.18.33&#x27;, &#x27;192.168.16.1&#x27;, &#x27;fe80::6dc3:bcf7:daee:374c%7&#x27;, &#x27;fe80::4932:49bd:49c6:6ebe%3&#x27;], &#x27;shutdown_timeout&#x27;: 5, &#x27;taskbar&#x27;: False, &#x27;with_coverage&#x27;: False, &#x27;scheduler_groups&#x27;: None, &#x27;port&#x27;: 8000, &#x27;maxthreads&#x27;: None, &#x27;softcron&#x27;: False, &#x27;server_name&#x27;: &#x27;MOHAMED-DTIC&#x27;, &#x27;bpython&#x27;: False, &#x27;nogui&#x27;: False, &#x27;pid_filename&#x27;: &#x27;httpserver.pid&#x27;, &#x27;extcron&#x27;: False, &#x27;runcron&#x27;: False, &#x27;run_system_tests&#x27;: False, &#x27;test&#x27;: None, &#x27;folder&#x27;: &#x27;D:\\\\Desenvolvimento\\\\web2py&#x27;, &#x27;config&#x27;: &#x27;&#x27;, &#x27;minthreads&#x27;: None, &#x27;shell&#x27;: None, &#x27;run&#x27;: &#x27;&#x27;, &#x27;log_filename&#x27;: &#x27;httpserver.log&#x27;, &#x27;profiler_dir&#x27;: None, &#x27;args&#x27;: [&#x27;&#x27;], &#x27;socket_timeout&#x27;: 5, &#x27;ssl_ca_certificate&#x27;: None, &#x27;scheduler&#x27;: None, &#x27;interfaces&#x27;: None, &#x27;ssl_private_key&#x27;: &#x27;&#x27;, &#x27;gae&#x27;: None, &#x27;password&#x27;: &#x27;&lt;ask&gt;&#x27;, &#x27;request_queue_size&#x27;: 5, &#x27;ssl_certificate&#x27;: &#x27;&#x27;, &#x27;cronjob&#x27;: False, &#x27;numthreads&#x27;: None, &#x27;quiet&#x27;: False, &#x27;import_models&#x27;: False, &#x27;timeout&#x27;: 10, &#x27;plain&#x27;: False, &#x27;nobanner&#x27;: False}&gt;</div></td></tr><tr><td style="font-weight:bold;vertical-align:top;">db_sessions</td><td style="vertical-align:top;">:</td><td><div>set([])</div></td></tr><tr><td style="font-weight:bold;vertical-align:top;">debugging</td><td style="vertical-align:top;">:</td><td><div>False</div></td></tr><tr><td style="font-weight:bold;vertical-align:top;">gluon_parent</td><td style="vertical-align:top;">:</td><td><div>D:\\Desenvolvimento\\web2py</div></td></tr><tr><td style="font-weight:bold;vertical-align:top;">http_accept</td><td style="vertical-align:top;">:</td><td><div>text/html,application/xhtml+xml,application/xml;q=0.9,image/webp,*/*;q=0.8</div></td></tr><tr><td style="font-weight:bold;vertical-align:top;">http_accept_encoding</td><td style="vertical-align:top;">:</td><td><div>gzip, deflate, sdch</div></td></tr><tr><td style="font-weight:bold;vertical-align:top;">http_accept_language</td><td style="vertical-align:top;">:</td><td><div>pt-BR,pt;q=0.8,en-US;q=0.6,en;q=0.4</div></td></tr><tr><td style="font-weight:bold;vertical-align:top;">http_cache_control</td><td style="vertical-align:top;">:</td><td><div>max-age=0</div></td></tr><tr><td style="font-weight:bold;vertical-align:top;">http_connection</td><td style="vertical-align:top;">:</td><td><div>keep-alive</div></td></tr><tr><td style="font-weight:bold;vertical-align:top;">http_cookie</td><td style="vertical-align:top;">:</td><td><div>session_data_examples=&quot;a632629af9fb55f9fa76a3571908672d:sN1Elcivdjn9AEoZt6p9CH1OYrd76hTOUSbiLoxyR_yP3VUKl1SZjORiT_6q2TsxL5KRFbKY7XlUqLQ8qUQ9fdKSc6SQwqz_hs_xRWB1svIa4GO-qZqNh0xkugb0opWHtCh3BhX5xMfeMOBP2L6lUMmh1yUcuvaOH6visCdSEsDn4ByzGUN5ylEsNFejbxELSaAOwlYRb4roFr9TXARwSQ0S6u7zw0eItm2g8Z9bm7H55aH4W870LM4wPH3cOGqzJmQwzbOivkXCtr0z5-WQ_HDnS1WI3ZTDruG4FQa_MF9avDDeu6JZ8vLf9CeyaUOT&quot;; session_id_examples=True; session_id_myappzero=127.0.0.1-41ad397c-50c5-4858-9e39-6c5ae8bdc5a1; session_id_voto=127.0.0.1-8786c067-43b4-459a-8441-749730cd2042; session_id_myapp=127.0.0.1-dd8a077d-66b1-4b2d-808d-5213f9618b8a; session_id_formulario=127.0.0.1-ad3203e2-ca0b-480a-bc23-84d358ff6197; session_id_controle=127.0.0.1-8d5cd6e4-1136-46a7-8777-e2dc8b975cc3; session_id_welcome=127.0.0.1-681ee77d-187b-4fb2-9d07-b68d64a9a1e4; session_id_admin=127.0.0.1-8821195d-d852-402b-9210-e24638d99d35; session_id_anestesia=127.0.0.1-f3e79e0a-00f4-4121-a50b-cf8a4b1af40b</div></td></tr><tr><td style="font-weight:bold;vertical-align:top;">http_host</td><td style="vertical-align:top;">:</td><td><div>127.0.0.1:8000</div></td></tr><tr><td style="font-weight:bold;vertical-align:top;">http_referer</td><td style="vertical-align:top;">:</td><td><div>http://127.0.0.1:8000/anestesia/pagina_incluir?nome=Nail+Mohamed+Saber+Abdo+Bekhit&amp;data=15%2F11%2F1971&amp;dados_cadastrais_e=nao&amp;dados_cadastrais_sexo=M&amp;tabagismo=nao&amp;asma=nao&amp;tosse=nao&amp;dpoc=nao&amp;bk=nao&amp;der_pleural=nao&amp;cir_tor=nao&amp;has=nao&amp;icc=nao&amp;anglina=nao&amp;iam=nao&amp;valvulopalla=nao&amp;marcapasso=nao&amp;arritmias=nao&amp;insuf_venosa=nao&amp;diabetes=nao&amp;hipertireoidismo=nao&amp;endocrinopalias=nao&amp;cirrose=nao&amp;hepa=nao&amp;hepb=nao&amp;hepc=nao&amp;elilismo=nao&amp;hiv=nao&amp;inf_opor=nao&amp;insuf_renal=nao&amp;hemod=nao&amp;dist_hemo=nao&amp;avc_previo=nao&amp;d_psi=nao&amp;d_neuro_musc=nao&amp;d_reuma=nao&amp;alt_neuro=nao&amp;hemo_prev=nao&amp;aber_boca=nao&amp;dentes_falhos=nao&amp;protese=nao&amp;macroglossia=nao&amp;massa_cervical=nao&amp;desvio_traqueia=nao&amp;cardioscopio=nao&amp;ox_digital=nao&amp;pni=nao&amp;painv=nao&amp;capnografo=nao&amp;an_gases=nao&amp;outros_monitorizacao=&amp;tec_geral=nao&amp;plexo=nao&amp;neuroeixo=nao&amp;combinada=nao&amp;sedacao=nao&amp;sub_mascara=nao&amp;can_naso=nao&amp;can_orofaringea=nao&amp;masc_laringea=nao&amp;int_oro_traqueal=nao&amp;tipo_naso=nao&amp;tipo_aramado=nao&amp;dupla_luz=nao&amp;balao=nao&amp;laringoscopia=nao&amp;broncofibroscopia=nao&amp;est_luminoso=nao&amp;videolaringoscopia=nao&amp;_formname=default</div></td></tr><tr><td style="font-weight:bold;vertical-align:top;">http_user_agent</td><td style="vertical-align:top;">:</td><td><div>Mozilla/5.0 (Windows NT 6.3; WOW64) AppleWebKit/537.36 (KHTML, like Gecko) Chrome/39.0.2171.95 Safari/537.36</div></td></tr><tr><td style="font-weight:bold;vertical-align:top;">is_jython</td><td style="vertical-align:top;">:</td><td><div>False</div></td></tr><tr><td style="font-weight:bold;vertical-align:top;">is_pypy</td><td style="vertical-align:top;">:</td><td><div>False</div></td></tr><tr><td style="font-weight:bold;vertical-align:top;">is_source</td><td style="vertical-align:top;">:</td><td><div>True</div></td></tr><tr><td style="font-weight:bold;vertical-align:top;">local_hosts</td><td style="vertical-align:top;">:</td><td><div><table><tr><td><div>192.168.71.1</div></td></tr><tr><td><div>fe80::4023:9900:3196:7ccb%5</div></td></tr><tr><td><div>fe80::6dc3:bcf7:daee:374c%7</div></td></tr><tr><td><div>::ffff:127.0.0.1</div></td></tr><tr><td><div>MOHAMED-DTIC</div></td></tr><tr><td><div>10.129.18.33</div></td></tr><tr><td><div>192.168.16.1</div></td></tr><tr><td><div>::1</div></td></tr><tr><td><div>MOHAMED-DTIC.unirio.br</div></td></tr><tr><td><div>127.0.0.1</div></td></tr><tr><td><div>fe80::4932:49bd:49c6:6ebe%3</div></td></tr></table></div></td></tr><tr><td style="font-weight:bold;vertical-align:top;">path_info</td><td style="vertical-align:top;">:</td><td><div>/anestesia/pagina_incluir</div></td></tr><tr><td style="font-weight:bold;vertical-align:top;">query_string</td><td style="vertical-align:top;">:</td><td><div>nr_registro=123&amp;nome=Nail+Mohamed+Saber+Abdo+Bekhit&amp;data=15%2F11%2F1971&amp;ficha_nr=123&amp;enfermaria=&amp;leito=&amp;idade=&amp;asa=&amp;clinica=&amp;so=&amp;dados_cadastrais_e=nao&amp;dados_cadastrais_sexo=M&amp;altura=&amp;peso=&amp;temperatura=&amp;pulso=&amp;respiracao=&amp;pa=&amp;diagnostico=&amp;cirurgia=&amp;tabagismo=nao&amp;asma=nao&amp;tosse=nao&amp;dpoc=nao&amp;bk_insuficiencia=nao&amp;der_pleural=nao&amp;circunferencia_toraxica=nao&amp;has=nao&amp;icc=nao&amp;anglina=nao&amp;iam=nao&amp;valvulopalla=nao&amp;marcapasso=nao&amp;arritmias=nao&amp;insuf_venosa=nao&amp;diabetes=nao&amp;hipertireoidismo=nao&amp;endocrinopalias=nao&amp;cirrose=nao&amp;hepatite_a=nao&amp;hepatite_b=nao&amp;hepatite_c=nao&amp;elilismo=nao&amp;hiv=nao&amp;infeccoes_oportunistas=nao&amp;insuf_renal=nao&amp;hemodialise_peritoneal=nao&amp;disturbios_hemorragicos=nao&amp;avc_previo=nao&amp;doencas_psiquiatrica=nao&amp;doenca_neuromuscular=nao&amp;doenca_reumatica=nao&amp;alteracao_neurologica=nao&amp;hemotransfusao_previa=nao&amp;txt_med_em_uso=&amp;txt_alergias=&amp;txt_cir_previas=&amp;abertura_boca=nao&amp;dentes_falhos=nao&amp;protese=nao&amp;macroglossia=nao&amp;distancia_esterno_mento=&amp;pescoco_curto_longo=&amp;pescoco_mobilidade_cervical=&amp;massa_cervical=nao&amp;desvio_traqueia=nao&amp;distancia_mento_hiloide=&amp;circunferencia_cervical=&amp;chk_atencao=dificuldade_intubacao&amp;chk_atencao=via_aerea_dificil&amp;chk_atencao=historia_de_anafilaxia&amp;chk_atencao=estomago_cheio&amp;chk_atencao=corticoide&amp;chk_atencao=endocardite_bacteriana&amp;hb=&amp;ht=&amp;hm=&amp;plaquetas=&amp;glicose=&amp;u=&amp;cr=&amp;na%2B=&amp;k%2B=&amp;txt_duracao_procedimento=&amp;txt_duracao_procedimento=&amp;cardioscopio=nao&amp;ox_digital=nao&amp;pni=nao&amp;painv=nao&amp;capnografo=nao&amp;an_gases=nao&amp;outros_monitorizacao=&amp;tec_geral=nao&amp;plexo=nao&amp;bloqueio_neuroeixo=nao&amp;combinada=nao&amp;sedacao=nao&amp;sub_mascara=nao&amp;canula_naso=nao&amp;canula_orofaringea=nao&amp;mascara_laringea=nao&amp;nr_mascara_laringea=&amp;intubacao_oro_traqueal=nao&amp;diametro_tubo=&amp;tipo_naso=nao&amp;tipo_aramado=nao&amp;dupla_luz=nao&amp;balao=nao&amp;laringoscopia=nao&amp;broncofibroscopia=nao&amp;estilete_luminoso=nao&amp;videolaringoscopia=nao&amp;cirurgia=&amp;anestesia=&amp;cirurgiap=&amp;_formname=default</div></td></tr><tr><td style="font-weight:bold;vertical-align:top;">remote_addr</td><td style="vertical-align:top;">:</td><td><div>127.0.0.1</div></td></tr><tr><td style="font-weight:bold;vertical-align:top;">remote_port</td><td style="vertical-align:top;">:</td><td><div>57706</div></td></tr><tr><td style="font-weight:bold;vertical-align:top;">request_method</td><td style="vertical-align:top;">:</td><td><div>GET</div></td></tr><tr><td style="font-weight:bold;vertical-align:top;">request_uri</td><td style="vertical-align:top;">:</td><td><div>/anestesia/pagina_incluir?nr_registro=123&amp;nome=Nail+Mohamed+Saber+Abdo+Bekhit&amp;data=15%2F11%2F1971&amp;ficha_nr=123&amp;enfermaria=&amp;leito=&amp;idade=&amp;asa=&amp;clinica=&amp;so=&amp;dados_cadastrais_e=nao&amp;dados_cadastrais_sexo=M&amp;altura=&amp;peso=&amp;temperatura=&amp;pulso=&amp;respiracao=&amp;pa=&amp;diagnostico=&amp;cirurgia=&amp;tabagismo=nao&amp;asma=nao&amp;tosse=nao&amp;dpoc=nao&amp;bk_insuficiencia=nao&amp;der_pleural=nao&amp;circunferencia_toraxica=nao&amp;has=nao&amp;icc=nao&amp;anglina=nao&amp;iam=nao&amp;valvulopalla=nao&amp;marcapasso=nao&amp;arritmias=nao&amp;insuf_venosa=nao&amp;diabetes=nao&amp;hipertireoidismo=nao&amp;endocrinopalias=nao&amp;cirrose=nao&amp;hepatite_a=nao&amp;hepatite_b=nao&amp;hepatite_c=nao&amp;elilismo=nao&amp;hiv=nao&amp;infeccoes_oportunistas=nao&amp;insuf_renal=nao&amp;hemodialise_peritoneal=nao&amp;disturbios_hemorragicos=nao&amp;avc_previo=nao&amp;doencas_psiquiatrica=nao&amp;doenca_neuromuscular=nao&amp;doenca_reumatica=nao&amp;alteracao_neurologica=nao&amp;hemotransfusao_previa=nao&amp;txt_med_em_uso=&amp;txt_alergias=&amp;txt_cir_previas=&amp;abertura_boca=nao&amp;dentes_falhos=nao&amp;protese=nao&amp;macroglossia=nao&amp;distancia_esterno_mento=&amp;pescoco_curto_longo=&amp;pescoco_mobilidade_cervical=&amp;massa_cervical=nao&amp;desvio_traqueia=nao&amp;distancia_mento_hiloide=&amp;circunferencia_cervical=&amp;chk_atencao=dificuldade_intubacao&amp;chk_atencao=via_aerea_dificil&amp;chk_atencao=historia_de_anafilaxia&amp;chk_atencao=estomago_cheio&amp;chk_atencao=corticoide&amp;chk_atencao=endocardite_bacteriana&amp;hb=&amp;ht=&amp;hm=&amp;plaquetas=&amp;glicose=&amp;u=&amp;cr=&amp;na%2B=&amp;k%2B=&amp;txt_duracao_procedimento=&amp;txt_duracao_procedimento=&amp;cardioscopio=nao&amp;ox_digital=nao&amp;pni=nao&amp;painv=nao&amp;capnografo=nao&amp;an_gases=nao&amp;outros_monitorizacao=&amp;tec_geral=nao&amp;plexo=nao&amp;bloqueio_neuroeixo=nao&amp;combinada=nao&amp;sedacao=nao&amp;sub_mascara=nao&amp;canula_naso=nao&amp;canula_orofaringea=nao&amp;mascara_laringea=nao&amp;nr_mascara_laringea=&amp;intubacao_oro_traqueal=nao&amp;diametro_tubo=&amp;tipo_naso=nao&amp;tipo_aramado=nao&amp;dupla_luz=nao&amp;balao=nao&amp;laringoscopia=nao&amp;broncofibroscopia=nao&amp;estilete_luminoso=nao&amp;videolaringoscopia=nao&amp;cirurgia=&amp;anestesia=&amp;cirurgiap=&amp;_formname=default</div></td></tr><tr><td style="font-weight:bold;vertical-align:top;">script_name</td><td style="vertical-align:top;">:</td><td><div></div></td></tr><tr><td style="font-weight:bold;vertical-align:top;">server_name</td><td style="vertical-align:top;">:</td><td><div>MOHAMED-DTIC</div></td></tr><tr><td style="font-weight:bold;vertical-align:top;">server_port</td><td style="vertical-align:top;">:</td><td><div>8000</div></td></tr><tr><td style="font-weight:bold;vertical-align:top;">server_protocol</td><td style="vertical-align:top;">:</td><td><div>HTTP/1.1</div></td></tr><tr><td style="font-weight:bold;vertical-align:top;">server_software</td><td style="vertical-align:top;">:</td><td><div>Rocket 1.2.6</div></td></tr><tr><td style="font-weight:bold;vertical-align:top;">web2py_path</td><td style="vertical-align:top;">:</td><td><div>D:\\Desenvolvimento\\web2py</div></td></tr><tr><td style="font-weight:bold;vertical-align:top;">web2py_version</td><td style="vertical-align:top;">:</td><td><div>2.9.11-stable+timestamp.2014.09.15.23.35.11</div></td></tr><tr><td style="font-weight:bold;vertical-align:top;">wsgi.errors</td><td style="vertical-align:top;">:</td><td><div>&lt;open file &#x27;&lt;stderr&gt;&#x27;, mode &#x27;w&#x27; at 0x004250D0&gt;</div></td></tr><tr><td style="font-weight:bold;vertical-align:top;">wsgi.file_wrapper</td><td style="vertical-align:top;">:</td><td><div>&lt;class wsgiref.util.FileWrapper at 0x02E49378&gt;</div></td></tr><tr><td style="font-weight:bold;vertical-align:top;">wsgi.input</td><td style="vertical-align:top;">:</td><td><div>&lt;socket._fileobject object at 0x0846C9F0&gt;</div></td></tr><tr><td style="font-weight:bold;vertical-align:top;">wsgi.multiprocess</td><td style="vertical-align:top;">:</td><td><div>False</div></td></tr><tr><td style="font-weight:bold;vertical-align:top;">wsgi.multithread</td><td style="vertical-align:top;">:</td><td><div>True</div></td></tr><tr><td style="font-weight:bold;vertical-align:top;">wsgi.run_once</td><td style="vertical-align:top;">:</td><td><div>False</div></td></tr><tr><td style="font-weight:bold;vertical-align:top;">wsgi.url_scheme</td><td style="vertical-align:top;">:</td><td><div>http</div></td></tr><tr><td style="font-weight:bold;vertical-align:top;">wsgi.version</td><td style="vertical-align:top;">:</td><td><div><table><tr><td><div>1</div></td></tr><tr><td><div>0</div></td></tr></table></div></td></tr><tr><td style="font-weight:bold;vertical-align:top;">wsgi_errors</td><td style="vertical-align:top;">:</td><td><div>&lt;open file &#x27;&lt;stderr&gt;&#x27;, mode &#x27;w&#x27; at 0x004250D0&gt;</div></td></tr><tr><td style="font-weight:bold;vertical-align:top;">wsgi_file_wrapper</td><td style="vertical-align:top;">:</td><td><div>&lt;class wsgiref.util.FileWrapper at 0x02E49378&gt;</div></td></tr><tr><td style="font-weight:bold;vertical-align:top;">wsgi_input</td><td style="vertical-align:top;">:</td><td><div>&lt;socket._fileobject object at 0x0846C9F0&gt;</div></td></tr><tr><td style="font-weight:bold;vertical-align:top;">wsgi_multiprocess</td><td style="vertical-align:top;">:</td><td><div>False</div></td></tr><tr><td style="font-weight:bold;vertical-align:top;">wsgi_multithread</td><td style="vertical-align:top;">:</td><td><div>True</div></td></tr><tr><td style="font-weight:bold;vertical-align:top;">wsgi_run_once</td><td style="vertical-align:top;">:</td><td><div>False</div></td></tr><tr><td style="font-weight:bold;vertical-align:top;">wsgi_url_scheme</td><td style="vertical-align:top;">:</td><td><div>http</div></td></tr><tr><td style="font-weight:bold;vertical-align:top;">wsgi_version</td><td style="vertical-align:top;">:</td><td><div><table><tr><td><div>1</div></td></tr><tr><td><div>0</div></td></tr></table></div></td></tr></table></div></td></tr><tr><td style="font-weight:bold;vertical-align:top;">extension</td><td style="vertical-align:top;">:</td><td><div>html</div></td></tr><tr><td style="font-weight:bold;vertical-align:top;">folder</td><td style="vertical-align:top;">:</td><td><div>D:\\Desenvolvimento\\web2py\\applications\\anestesia\\</div></td></tr><tr><td style="font-weight:bold;vertical-align:top;">function</td><td style="vertical-align:top;">:</td><td><div>index</div></td></tr><tr><td style="font-weight:bold;vertical-align:top;">global_settings</td><td style="vertical-align:top;">:</td><td><div><table><tr><td style="font-weight:bold;vertical-align:top;">app_folders</td><td style="vertical-align:top;">:</td><td><div>set([&#x27;D:\\\\Desenvolvimento\\\\web2py\\\\applications\\\\admin\\\\&#x27;, &#x27;D:\\\\Desenvolvimento\\\\web2py\\\\applications\\\\anestesia\\\\&#x27;, &#x27;D:\\\\Desenvolvimento\\\\web2py\\\\applications\\\\welcome\\\\&#x27;])</div></td></tr><tr><td style="font-weight:bold;vertical-align:top;">applications_parent</td><td style="vertical-align:top;">:</td><td><div>D:\\Desenvolvimento\\web2py</div></td></tr><tr><td style="font-weight:bold;vertical-align:top;">cmd_args</td><td style="vertical-align:top;">:</td><td><div><table></table></div></td></tr><tr><td style="font-weight:bold;vertical-align:top;">cmd_options</td><td style="vertical-align:top;">:</td><td><div>&lt;Values at 0x2e9a7b0: {&#x27;verbose&#x27;: False, &#x27;ip&#x27;: &#x27;127.0.0.1&#x27;, &#x27;debuglevel&#x27;: 30, &#x27;with_scheduler&#x27;: False, &#x27;ips&#x27;: [&#x27;192.168.71.1&#x27;, &#x27;fe80::4023:9900:3196:7ccb%5&#x27;, &#x27;10.129.18.33&#x27;, &#x27;192.168.16.1&#x27;, &#x27;fe80::6dc3:bcf7:daee:374c%7&#x27;, &#x27;fe80::4932:49bd:49c6:6ebe%3&#x27;], &#x27;shutdown_timeout&#x27;: 5, &#x27;taskbar&#x27;: False, &#x27;with_coverage&#x27;: False, &#x27;scheduler_groups&#x27;: None, &#x27;port&#x27;: 8000, &#x27;maxthreads&#x27;: None, &#x27;softcron&#x27;: False, &#x27;server_name&#x27;: &#x27;MOHAMED-DTIC&#x27;, &#x27;bpython&#x27;: False, &#x27;nogui&#x27;: False, &#x27;pid_filename&#x27;: &#x27;httpserver.pid&#x27;, &#x27;extcron&#x27;: False, &#x27;runcron&#x27;: False, &#x27;run_system_tests&#x27;: False, &#x27;test&#x27;: None, &#x27;folder&#x27;: &#x27;D:\\\\Desenvolvimento\\\\web2py&#x27;, &#x27;config&#x27;: &#x27;&#x27;, &#x27;minthreads&#x27;: None, &#x27;shell&#x27;: None, &#x27;run&#x27;: &#x27;&#x27;, &#x27;log_filename&#x27;: &#x27;httpserver.log&#x27;, &#x27;profiler_dir&#x27;: None, &#x27;args&#x27;: [&#x27;&#x27;], &#x27;socket_timeout&#x27;: 5, &#x27;ssl_ca_certificate&#x27;: None, &#x27;scheduler&#x27;: None, &#x27;interfaces&#x27;: None, &#x27;ssl_private_key&#x27;: &#x27;&#x27;, &#x27;gae&#x27;: None, &#x27;password&#x27;: &#x27;&lt;ask&gt;&#x27;, &#x27;request_queue_size&#x27;: 5, &#x27;ssl_certificate&#x27;: &#x27;&#x27;, &#x27;cronjob&#x27;: False, &#x27;numthreads&#x27;: None, &#x27;quiet&#x27;: False, &#x27;import_models&#x27;: False, &#x27;timeout&#x27;: 10, &#x27;plain&#x27;: False, &#x27;nobanner&#x27;: False}&gt;</div></td></tr><tr><td style="font-weight:bold;vertical-align:top;">db_sessions</td><td style="vertical-align:top;">:</td><td><div>set([])</div></td></tr><tr><td style="font-weight:bold;vertical-align:top;">debugging</td><td style="vertical-align:top;">:</td><td><div>False</div></td></tr><tr><td style="font-weight:bold;vertical-align:top;">gluon_parent</td><td style="vertical-align:top;">:</td><td><div>D:\\Desenvolvimento\\web2py</div></td></tr><tr><td style="font-weight:bold;vertical-align:top;">is_jython</td><td style="vertical-align:top;">:</td><td><div>False</div></td></tr><tr><td style="font-weight:bold;vertical-align:top;">is_pypy</td><td style="vertical-align:top;">:</td><td><div>False</div></td></tr><tr><td style="font-weight:bold;vertical-align:top;">is_source</td><td style="vertical-align:top;">:</td><td><div>True</div></td></tr><tr><td style="font-weight:bold;vertical-align:top;">local_hosts</td><td style="vertical-align:top;">:</td><td><div><table><tr><td><div>192.168.71.1</div></td></tr><tr><td><div>fe80::4023:9900:3196:7ccb%5</div></td></tr><tr><td><div>fe80::6dc3:bcf7:daee:374c%7</div></td></tr><tr><td><div>::ffff:127.0.0.1</div></td></tr><tr><td><div>MOHAMED-DTIC</div></td></tr><tr><td><div>10.129.18.33</div></td></tr><tr><td><div>192.168.16.1</div></td></tr><tr><td><div>::1</div></td></tr><tr><td><div>MOHAMED-DTIC.unirio.br</div></td></tr><tr><td><div>127.0.0.1</div></td></tr><tr><td><div>fe80::4932:49bd:49c6:6ebe%3</div></td></tr></table></div></td></tr><tr><td style="font-weight:bold;vertical-align:top;">web2py_version</td><td style="vertical-align:top;">:</td><td><div>2.9.11-stable+timestamp.2014.09.15.23.35.11</div></td></tr></table></div></td></tr><tr><td style="font-weight:bold;vertical-align:top;">is_https</td><td style="vertical-align:top;">:</td><td><div>False</div></td></tr><tr><td style="font-weight:bold;vertical-align:top;">is_local</td><td style="vertical-align:top;">:</td><td><div>True</div></td></tr><tr><td style="font-weight:bold;vertical-align:top;">is_restful</td><td style="vertical-align:top;">:</td><td><div>False</div></td></tr><tr><td style="font-weight:bold;vertical-align:top;">is_sheduler</td><td style="vertical-align:top;">:</td><td><div>None</div></td></tr><tr><td style="font-weight:bold;vertical-align:top;">is_shell</td><td style="vertical-align:top;">:</td><td><div>None</div></td></tr><tr><td style="font-weight:bold;vertical-align:top;">now</td><td style="vertical-align:top;">:</td><td><div>datetime.datetime(2014, 12, 15, 15, 10, 18, 822000)</div></td></tr><tr><td style="font-weight:bold;vertical-align:top;">raw_args</td><td style="vertical-align:top;">:</td><td><div></div></td></tr><tr><td style="font-weight:bold;vertical-align:top;">raw_extension</td><td style="vertical-align:top;">:</td><td><div>None</div></td></tr><tr><td style="font-weight:bold;vertical-align:top;">url</td><td style="vertical-align:top;">:</td><td><div>/anestesia/pagina_incluir</div></td></tr><tr><td style="font-weight:bold;vertical-align:top;">utcnow</td><td style="vertical-align:top;">:</td><td><div>datetime.datetime(2014, 12, 15, 17, 10, 18, 822000)</div></td></tr><tr><td style="font-weight:bold;vertical-align:top;">uuid</td><td style="vertical-align:top;">:</td><td><div>anestesia/127.0.0.1.2014-12-15.15-10-18.7c17223c-e51d-40a7-934a-c24bb794b15b</div></td></tr><tr><td style="font-weight:bold;vertical-align:top;">wsgi</td><td style="vertical-align:top;">:</td><td><div>&lt;gluon.main.LazyWSGI object at 0x081A6330&gt;</div></td></tr></table></div>'
tRp58
sS'frames'
p59
(lp60
(dp61
S'file'
p62
S'D:\\Desenvolvimento\\web2py\\gluon\\restricted.py'
p63
sS'dump'
p64
(dp65
S'environment'
p66
S"{'A': <class 'gluon.html.A'>, 'ANY_OF': <class 'gluon.validators.ANY_OF'>, 'ASSIGNJS': <function ASSIGNJS>, 'Auth': <class 'gluon.tools.Auth'>, 'B': <class 'gluon.html.B'>, 'BEAUTIFY': <class 'gluon.html.BEAUTIFY'>, 'BODY': <class 'gluon.html.BODY'>, 'BR': <class 'gluon.html.BR'>, 'BUTTON': <class 'gluon.html.BUTTON'>, 'CAT': <class 'gluon.html.CAT'>, ...}"
p67
sS'ccode'
p68
S'<code object <module> at 08031F98, file "D:\\Dese...py\\applications\\anestesia\\models\\db.py", line 12>'
p69
ssS'lnum'
p70
I224
sS'lines'
p71
(dp72
I224
S'        exec ccode in environment'
p73
sI225
S'    except HTTP:'
p74
sI226
S'        raise'
p75
sI227
S'    except RestrictedError:'
p76
sI228
S'        # do not encapsulate (obfuscate) the original RestrictedError'
p77
sI219
S'    try:'
p78
sI220
S'        if isinstance(code, types.CodeType):'
p79
sI221
S'            ccode = code'
p80
sI222
S'        else:'
p81
sI223
S'            ccode = compile2(code, layer)'
p82
ssS'call'
p83
S"(code='# -*- coding: utf-8 -*-\\n\\n#######################...paciente.matricula_hugg.requires = IS_NOT_EMPTY()', environment={'A': <class 'gluon.html.A'>, 'ANY_OF': <class 'gluon.validators.ANY_OF'>, 'ASSIGNJS': <function ASSIGNJS>, 'Auth': <class 'gluon.tools.Auth'>, 'B': <class 'gluon.html.B'>, 'BEAUTIFY': <class 'gluon.html.BEAUTIFY'>, 'BODY': <class 'gluon.html.BODY'>, 'BR': <class 'gluon.html.BR'>, 'BUTTON': <class 'gluon.html.BUTTON'>, 'CAT': <class 'gluon.html.CAT'>, ...}, layer=r'D:\\Desenvolvimento\\web2py\\applications\\anestesia\\models\\db.py')"
p84
sS'func'
p85
S'restricted'
p86
sa(dp87
g62
S'D:\\Desenvolvimento\\web2py\\applications\\anestesia\\models\\db.py'
p88
sg64
(dp89
S'Field'
p90
S"<class 'gluon.dal.Field'>"
p91
ssg70
I162
sg71
(dp92
I160
S"                    Field('distancia_mento_hiloide', 'boolean'),"
p93
sI161
S"                    Field('circunferencia_cervical', 'boolean'),"
p94
sI162
S"                    Field('', 'boolean'),)"
p95
sI163
S''
sI164
S"db.paciente.nome.requires = IS_NOT_EMPTY(error_message='O Nome n\xc3\xa3o pode estar sem preenchimento.')"
p96
sI165
S'db.paciente.matricula_hugg.requires = IS_NOT_EMPTY()'
p97
sI156
S"                    Field('pescoco_curto_longo', 'string'),"
p98
sI157
S"                    Field('mobilidade_cervical', 'string'),"
p99
sI158
S"                    Field('massa_cervical', 'boolean'),"
p100
sI159
S"                    Field('desvio_traqueia', 'boolean'),"
p101
ssg83
S'()'
p102
sg85
S'<module>'
p103
sa(dp104
g62
S'D:\\Desenvolvimento\\web2py\\gluon\\dal.py'
p105
sg64
(dp106
S'global REGEX_PYTHON_KEYWORDS'
p107
S'<_sre.SRE_Pattern object>'
p108
sS'REGEX_PYTHON_KEYWORDS.match'
p109
S'<built-in method match of _sre.SRE_Pattern object>'
p110
sS'fieldname'
p111
S"''"
p112
ssg70
I10117
sg71
(dp113
I10112
S'                fieldname = str(fieldname)'
p114
sI10113
S'            except UnicodeEncodeError:'
p115
sI10114
S"                raise SyntaxError('Field: invalid unicode field name')"
p116
sI10115
S'        self.name = fieldname = cleanup(fieldname)'
p117
sI10116
S'        if not isinstance(fieldname, str) or hasattr(Table, fieldname) or \\'
p118
sI10117
S"                fieldname[0] == '_' or '.' in fieldname or \\"
p119
sI10118
S'                REGEX_PYTHON_KEYWORDS.match(fieldname):'
p120
sI10119
S"            raise SyntaxError('Field: invalid field name: %s, '"
p121
sI10120
S'                              \'use rname for "funny" names\' % fieldname)'
p122
sI10121
S''
ssg83
S"(self=<gluon.dal.Field object>, fieldname='', type='boolean', length=None, default=<function <lambda>>, required=False, requires=<function <lambda>>, ondelete='CASCADE', notnull=False, unique=False, uploadfield=True, widget=None, label=None, comment=None, writable=True, readable=True, update=None, authorize=None, autodelete=False, represent=None, uploadfolder=None, uploadseparate=False, uploadfs=None, compute=None, custom_store=None, custom_retrieve=None, custom_retrieve_file_properties=None, custom_delete=None, filter_in=None, filter_out=None, custom_qualifier=None, map_none=None, rname=None)"
p123
sg85
g50
sasS'pyver'
p124
S'Python 2.7: C:\\Python27\\python.exe (prefix: C:\\Python27)'
p125
sS'session'
p126
g57
(S's\x1a\x00\x00\x00<div><table></table></div>'
tRp127
sS'etype'
p128
S"<type 'exceptions.IndexError'>"
p129
sS'date'
p130
S'Mon Dec 15 15:10:18 2014'
p131
sS'response'
p132
g57
(S's\x13\x18\x00\x00<div><table><tr><td style="font-weight:bold;vertical-align:top;">body</td><td style="vertical-align:top;">:</td><td><div>&lt;cStringIO.StringO object at 0x080CF9A0&gt;</div></td></tr><tr><td style="font-weight:bold;vertical-align:top;">cookies</td><td style="vertical-align:top;">:</td><td><div><table><tr><td style="font-weight:bold;vertical-align:top;">session_id_anestesia</td><td style="vertical-align:top;">:</td><td><div>127.0.0.1-f3e79e0a-00f4-4121-a50b-cf8a4b1af40b<table><tr><td style="font-weight:bold;vertical-align:top;">comment</td><td style="vertical-align:top;">:</td><td><div></div></td></tr><tr><td style="font-weight:bold;vertical-align:top;">domain</td><td style="vertical-align:top;">:</td><td><div></div></td></tr><tr><td style="font-weight:bold;vertical-align:top;">expires</td><td style="vertical-align:top;">:</td><td><div></div></td></tr><tr><td style="font-weight:bold;vertical-align:top;">httponly</td><td style="vertical-align:top;">:</td><td><div></div></td></tr><tr><td style="font-weight:bold;vertical-align:top;">max-age</td><td style="vertical-align:top;">:</td><td><div></div></td></tr><tr><td style="font-weight:bold;vertical-align:top;">path</td><td style="vertical-align:top;">:</td><td><div>/</div></td></tr><tr><td style="font-weight:bold;vertical-align:top;">secure</td><td style="vertical-align:top;">:</td><td><div></div></td></tr><tr><td style="font-weight:bold;vertical-align:top;">version</td><td style="vertical-align:top;">:</td><td><div></div></td></tr></table></div></td></tr></table></div></td></tr><tr><td style="font-weight:bold;vertical-align:top;">delimiters</td><td style="vertical-align:top;">:</td><td><div><table><tr><td><div>{{</div></td></tr><tr><td><div>}}</div></td></tr></table></div></td></tr><tr><td style="font-weight:bold;vertical-align:top;">files</td><td style="vertical-align:top;">:</td><td><div><table></table></div></td></tr><tr><td style="font-weight:bold;vertical-align:top;">flash</td><td style="vertical-align:top;">:</td><td><div></div></td></tr><tr><td style="font-weight:bold;vertical-align:top;">form_label_separator</td><td style="vertical-align:top;">:</td><td><div>: </div></td></tr><tr><td style="font-weight:bold;vertical-align:top;">formstyle</td><td style="vertical-align:top;">:</td><td><div>table3cols</div></td></tr><tr><td style="font-weight:bold;vertical-align:top;">generic_patterns</td><td style="vertical-align:top;">:</td><td><div><table><tr><td><div>*</div></td></tr></table></div></td></tr><tr><td style="font-weight:bold;vertical-align:top;">headers</td><td style="vertical-align:top;">:</td><td><div><table><tr><td style="font-weight:bold;vertical-align:top;">X-Powered-By</td><td style="vertical-align:top;">:</td><td><div>web2py</div></td></tr></table></div></td></tr><tr><td style="font-weight:bold;vertical-align:top;">menu</td><td style="vertical-align:top;">:</td><td><div><table></table></div></td></tr><tr><td style="font-weight:bold;vertical-align:top;">meta</td><td style="vertical-align:top;">:</td><td><div><table></table></div></td></tr><tr><td style="font-weight:bold;vertical-align:top;">models_to_run</td><td style="vertical-align:top;">:</td><td><div><table><tr><td><div>^\\w+\\.py$</div></td></tr><tr><td><div>^pagina_incluir/\\w+\\.py$</div></td></tr><tr><td><div>^pagina_incluir/index/\\w+\\.py$</div></td></tr></table></div></td></tr><tr><td style="font-weight:bold;vertical-align:top;">postprocessing</td><td style="vertical-align:top;">:</td><td><div><table></table></div></td></tr><tr><td style="font-weight:bold;vertical-align:top;">session_client</td><td style="vertical-align:top;">:</td><td><div>127.0.0.1</div></td></tr><tr><td style="font-weight:bold;vertical-align:top;">session_cookie_compression_level</td><td style="vertical-align:top;">:</td><td><div>None</div></td></tr><tr><td style="font-weight:bold;vertical-align:top;">session_cookie_expires</td><td style="vertical-align:top;">:</td><td><div>None</div></td></tr><tr><td style="font-weight:bold;vertical-align:top;">session_cookie_key</td><td style="vertical-align:top;">:</td><td><div>None</div></td></tr><tr><td style="font-weight:bold;vertical-align:top;">session_data_name</td><td style="vertical-align:top;">:</td><td><div>session_data_anestesia</div></td></tr><tr><td style="font-weight:bold;vertical-align:top;">session_file</td><td style="vertical-align:top;">:</td><td><div>&lt;open file &#x27;D:\\Desenvolvimento\\web2py\\applications\\anestesia\\sessions\\138\\0b3\\127.0.0.1-f3e79e0a-00f4-4121-a50b-cf8a4b1af40b&#x27;, mode &#x27;rb+&#x27; at 0x02EAE020&gt;</div></td></tr><tr><td style="font-weight:bold;vertical-align:top;">session_filename</td><td style="vertical-align:top;">:</td><td><div>D:\\Desenvolvimento\\web2py\\applications\\anestesia\\sessions\\127.0.0.1-f3e79e0a-00f4-4121-a50b-cf8a4b1af40b</div></td></tr><tr><td style="font-weight:bold;vertical-align:top;">session_hash</td><td style="vertical-align:top;">:</td><td><div>f05a373a208d5b0fddb0cc6d10c86f3b</div></td></tr><tr><td style="font-weight:bold;vertical-align:top;">session_id</td><td style="vertical-align:top;">:</td><td><div>127.0.0.1-f3e79e0a-00f4-4121-a50b-cf8a4b1af40b</div></td></tr><tr><td style="font-weight:bold;vertical-align:top;">session_id_name</td><td style="vertical-align:top;">:</td><td><div>session_id_anestesia</div></td></tr><tr><td style="font-weight:bold;vertical-align:top;">session_locked</td><td style="vertical-align:top;">:</td><td><div>True</div></td></tr><tr><td style="font-weight:bold;vertical-align:top;">session_masterapp</td><td style="vertical-align:top;">:</td><td><div>anestesia</div></td></tr><tr><td style="font-weight:bold;vertical-align:top;">session_new</td><td style="vertical-align:top;">:</td><td><div>False</div></td></tr><tr><td style="font-weight:bold;vertical-align:top;">session_storage_type</td><td style="vertical-align:top;">:</td><td><div>file</div></td></tr><tr><td style="font-weight:bold;vertical-align:top;">status</td><td style="vertical-align:top;">:</td><td><div>200</div></td></tr><tr><td style="font-weight:bold;vertical-align:top;">view</td><td style="vertical-align:top;">:</td><td><div>pagina_incluir/index.html</div></td></tr></table></div>'
tRp133
sS'locals'
p134
(dp135
S'authorize'
p136
S'None'
p137
sS'represent'
p138
S'None'
p139
sS'rname'
p140
S'None'
p141
sS'autodelete'
p142
S'False'
p143
sS'filter_out'
p144
S'None'
p145
sS'uploadseparate'
p146
g143
sS'ondelete'
p147
S"'CASCADE'"
p148
sS'uploadfs'
p149
S'None'
p150
sS'custom_delete'
p151
S'None'
p152
sS'uploadfield'
p153
S'True'
p154
sS'uploadfolder'
p155
S'None'
p156
sS'custom_qualifier'
p157
S'None'
p158
sS'map_none'
p159
S'None'
p160
sS'self'
p161
S'<gluon.dal.Field object>'
p162
sS'readable'
p163
g154
sS'label'
p164
S'None'
p165
sS'notnull'
p166
g143
sS'custom_retrieve_file_properties'
p167
S'None'
p168
sS'filter_in'
p169
S'None'
p170
sS'widget'
p171
S'None'
p172
sS'custom_store'
p173
S'None'
p174
sS'custom_retrieve'
p175
S'None'
p176
sS'update'
p177
S'None'
p178
sS'unique'
p179
g143
sS'writable'
p180
g154
sS'compute'
p181
S'None'
p182
sS'default'
p183
S'<function <lambda>>'
p184
sS'type'
p185
S"'boolean'"
p186
sS'required'
p187
g143
sS'comment'
p188
S'None'
p189
sS'length'
p190
S'None'
p191
sS'fieldname'
p192
S"''"
p193
sS'requires'
p194
S'<function <lambda>>'
p195
sssS'traceback'
p196
S'Traceback (most recent call last):\n  File "D:\\Desenvolvimento\\web2py\\gluon\\restricted.py", line 224, in restricted\n    exec ccode in environment\n  File "D:\\Desenvolvimento\\web2py\\applications\\anestesia\\models\\db.py", line 162, in <module>\n    Field(\'\', \'boolean\'),)\n  File "D:\\Desenvolvimento\\web2py\\gluon\\dal.py", line 10117, in __init__\n    fieldname[0] == \'_\' or \'.\' in fieldname or \\\nIndexError: string index out of range\n'
p197
s.